 MoveMapGen

 Timestamp is 4d0f4f2d (Mon Dec 20 13:42:21 2010)

 Preferred load address is 00400000

 Start         Length     Name                   Class
 0001:00000000 0002ec9bH .text                   CODE
 0001:0002eca0 00001b45H .text$x                 CODE
 0001:000307f0 00000036H .text$yc                CODE
 0001:00030830 000000faH .text$yd                CODE
 0002:00000000 00000280H .idata$5                DATA
 0002:00000280 00000004H .CRT$XCA                DATA
 0002:00000284 00000004H .CRT$XCAA               DATA
 0002:00000288 00000008H .CRT$XCU                DATA
 0002:00000290 00000004H .CRT$XCZ                DATA
 0002:00000294 00000004H .CRT$XIA                DATA
 0002:00000298 00000004H .CRT$XIAA               DATA
 0002:0000029c 00000004H .CRT$XIC                DATA
 0002:000002a0 00000004H .CRT$XIY                DATA
 0002:000002a4 00000004H .CRT$XIZ                DATA
 0002:000002b0 00005b40H .rdata                  DATA
 0002:00005df0 00000066H .rdata$debug            DATA
 0002:00005e58 00000604H .rdata$r                DATA
 0002:00006460 00000184H .rdata$sxdata           DATA
 0002:000065e4 00000004H .rtc$IAA                DATA
 0002:000065e8 00000004H .rtc$IZZ                DATA
 0002:000065ec 00000004H .rtc$TAA                DATA
 0002:000065f0 00000004H .rtc$TZZ                DATA
 0002:000065f8 00001b90H .xdata$x                DATA
 0002:00008188 00000064H .idata$2                DATA
 0002:000081ec 00000014H .idata$3                DATA
 0002:00008200 00000280H .idata$4                DATA
 0002:00008480 00000e76H .idata$6                DATA
 0002:000092f6 00000000H .edata                  DATA
 0003:00000000 000005c0H .data                   DATA
 0003:000005c0 0000050cH .bss                    DATA

  Address         Publics by Value              Rva+Base       Lib:Object

 0000:00000000       __except_list              00000000     <absolute>
 0000:00000061       ___safe_se_handler_count   00000061     <absolute>
 0000:00009876       __ldused                   00009876     <absolute>
 0000:00009876       __fltused                  00009876     <absolute>
 0000:00000000       ___ImageBase               00400000     <linker-defined>
 0001:00000000       ??1bad_alloc@std@@UAE@XZ   00401000 f i BIH.obj
 0001:00000010       ??_Gbad_alloc@std@@UAEPAXI@Z 00401010 f i BIH.obj
 0001:00000010       ??_Ebad_alloc@std@@UAEPAXI@Z 00401010 f i  CIL library: CIL module
 0001:00000040       ??0Vector3@G3D@@QAE@MMM@Z  00401040 f i BIH.obj
 0001:00000060       ??4Vector3@G3D@@QAIAAV01@ABV01@@Z 00401060 f i BIH.obj
 0001:00000080       ??GVector3@G3D@@QBI?AV01@ABV01@@Z 00401080 f i BIH.obj
 0001:000000b0       ?readFromFile@BIH@@QAE_NPAU_iobuf@@@Z 004010b0 f   BIH.obj
 0001:000001a0       ?resize@?$vector@IV?$allocator@I@std@@@std@@QAEXI@Z 004011a0 f i BIH.obj
 0001:00000230       ?_Reserve@?$vector@IV?$allocator@I@std@@@std@@IAEXI@Z 00401230 f i BIH.obj
 0001:00000290       ?allocate@?$allocator@H@std@@QAEPAHI@Z 00401290 f i MapBuilder.obj
 0001:00000290       ?allocate@?$allocator@I@std@@QAEPAII@Z 00401290 f i BIH.obj
 0001:000002f0       ??0bad_alloc@std@@QAE@ABV01@@Z 004012f0 f i BIH.obj
 0001:00000310       _sqrtf                     00401310 f i MapTree.obj
 0001:00000330       ?magnitude@Vector3@G3D@@QBEMXZ 00401330 f i MapTree.obj
 0001:00000370       ?contains@AABox@G3D@@QBE_NABVVector3@2@@Z 00401370 f i MapTree.obj
 0001:000003d0       ??0ModelInstance@VMAP@@QAE@XZ 004013d0 f i MapTree.obj
 0001:00000410       ??1ModelSpawn@VMAP@@QAE@XZ 00401410 f i MapTree.obj
 0001:00000440       ?getTileFileName@StaticMapTree@VMAP@@SA?AV?$basic_string@DU?$char_traits@D@std@@V?$allocator@D@2@@std@@III@Z 00401440 f   MapTree.obj
 0001:000005b0       ??_D?$basic_stringstream@DU?$char_traits@D@std@@V?$allocator@D@2@@std@@QAEXXZ 004015b0 f i MapTree.obj
 0001:00000620       ??0StaticMapTree@VMAP@@QAE@IABV?$basic_string@DU?$char_traits@D@std@@V?$allocator@D@2@@std@@@Z 00401620 f   MapTree.obj
 0001:00000740       ??1BIH@@QAE@XZ             00401740 f i MapTree.obj
 0001:00000780       ??1?$unordered_map@I_NV?$hash@I@std@@U?$equal_to@I@2@V?$allocator@U?$pair@$$CBI_N@std@@@2@@tr1@std@@QAE@XZ 00401780 f i MapTree.obj
 0001:00000780       ??1?$unordered_map@IPAVStaticMapTree@VMAP@@V?$hash@I@std@@U?$equal_to@I@4@V?$allocator@U?$pair@$$CBIPAVStaticMapTree@VMAP@@@std@@@4@@tr1@std@@QAE@XZ 00401780 f i VMapManager2.obj
 0001:00000780       ??1?$unordered_map@IIV?$hash@I@std@@U?$equal_to@I@2@V?$allocator@U?$pair@$$CBII@std@@@2@@tr1@std@@QAE@XZ 00401780 f i MapTree.obj
 0001:000007d0       ??1StaticMapTree@VMAP@@QAE@XZ 004017d0 f   MapTree.obj
 0001:00000930       ??1ModelInstance@VMAP@@QAE@XZ 00401930 f i MapTree.obj
 0001:00000960       ?isInLineOfSight@StaticMapTree@VMAP@@QBE_NABVVector3@G3D@@0@Z 00401960 f   MapTree.obj
 0001:00000aa0       ?getObjectHitPos@StaticMapTree@VMAP@@QBE_NABVVector3@G3D@@0AAV34@M@Z 00401aa0 f   MapTree.obj
 0001:00000d80       ?getHeight@StaticMapTree@VMAP@@QBEMABVVector3@G3D@@M@Z 00401d80 f   MapTree.obj
 0001:00000e20       ?CanLoadMap@StaticMapTree@VMAP@@SA_NABV?$basic_string@DU?$char_traits@D@std@@V?$allocator@D@2@@std@@III@Z 00401e20 f   MapTree.obj
 0001:00001120       ?InitMap@StaticMapTree@VMAP@@QAE_NABV?$basic_string@DU?$char_traits@D@std@@V?$allocator@D@2@@std@@PAVVMapManager2@2@@Z 00402120 f   MapTree.obj
 0001:00001470       ??4ModelInstance@VMAP@@QAEAAV01@ABV01@@Z 00402470 f i MapTree.obj
 0001:000014c0       ??4ModelSpawn@VMAP@@QAEAAV01@ABV01@@Z 004024c0 f i MapTree.obj
 0001:00001540       ?UnloadMap@StaticMapTree@VMAP@@QAEXPAVVMapManager2@2@@Z 00402540 f   MapTree.obj
 0001:00001650       ?LoadMapTile@StaticMapTree@VMAP@@QAE_NIIPAVVMapManager2@2@@Z 00402650 f   MapTree.obj
 0001:00001a30       ?UnloadMapTile@StaticMapTree@VMAP@@QAEXIIPAVVMapManager2@2@@Z 00402a30 f   MapTree.obj
 0001:00001db0       ??1?$basic_string@DU?$char_traits@D@std@@V?$allocator@D@2@@std@@QAE@XZ 00402db0 f i MapTree.obj
 0001:00001de0       ?_Myptr@?$basic_string@DU?$char_traits@D@std@@V?$allocator@D@2@@std@@QBEPBDXZ 00402de0 f i MapTree.obj
 0001:00001de0       ?c_str@?$basic_string@DU?$char_traits@D@std@@V?$allocator@D@2@@std@@QBEPBDXZ 00402de0 f i MapTree.obj
 0001:00001df0       ??A?$unordered_map@I_NV?$hash@I@std@@U?$equal_to@I@2@V?$allocator@U?$pair@$$CBI_N@std@@@2@@tr1@std@@QAEAA_N$$QAI@Z 00402df0 f i MapTree.obj
 0001:00001e70       ?erase@?$_Hash@V?$_Umap_traits@I_NV?$_Hash_compare@IV?$hash@I@std@@U?$equal_to@I@2@@std@@V?$allocator@U?$pair@$$CBI_N@std@@@2@$0A@@tr1@std@@@std@@QAE?AV?$_List_iterator@V?$_List_val@U?$pair@$$CBI_N@std@@V?$allocator@U?$pair@$$CBI_N@std@@@2@@std@@@2@V?$_List_const_iterator@V?$_List_val@U?$pair@$$CBI_N@std@@V?$allocator@U?$pair@$$CBI_N@std@@@2@@std@@@2@@Z 00402e70 f i MapTree.obj
 0001:00001e70       ?erase@?$_Hash@V?$_Umap_traits@IIV?$_Hash_compare@IV?$hash@I@std@@U?$equal_to@I@2@@std@@V?$allocator@U?$pair@$$CBII@std@@@2@$0A@@tr1@std@@@std@@QAE?AV?$_List_iterator@V?$_List_val@U?$pair@$$CBII@std@@V?$allocator@U?$pair@$$CBII@std@@@2@@std@@@2@V?$_List_const_iterator@V?$_List_val@U?$pair@$$CBII@std@@V?$allocator@U?$pair@$$CBII@std@@@2@@std@@@2@@Z 00402e70 f i MapTree.obj
 0001:00001e70       ?erase@?$_Hash@V?$_Umap_traits@IPAVStaticMapTree@VMAP@@V?$_Hash_compare@IV?$hash@I@std@@U?$equal_to@I@2@@std@@V?$allocator@U?$pair@$$CBIPAVStaticMapTree@VMAP@@@std@@@4@$0A@@tr1@std@@@std@@QAE?AV?$_List_iterator@V?$_List_val@U?$pair@$$CBIPAVStaticMapTree@VMAP@@@std@@V?$allocator@U?$pair@$$CBIPAVStaticMapTree@VMAP@@@std@@@2@@std@@@2@V?$_List_const_iterator@V?$_List_val@U?$pair@$$CBIPAVStaticMapTree@VMAP@@@std@@V?$allocator@U?$pair@$$CBIPAVStaticMapTree@VMAP@@@std@@@2@@std@@@2@@Z 00402e70 f i VMapManager2.obj
 0001:00001f20       ??A?$unordered_map@IIV?$hash@I@std@@U?$equal_to@I@2@V?$allocator@U?$pair@$$CBII@std@@@2@@tr1@std@@QAEAAI$$QAI@Z 00402f20 f i MapTree.obj
 0001:00001f20       ??A?$unordered_map@IIV?$hash@I@std@@U?$equal_to@I@2@V?$allocator@U?$pair@$$CBII@std@@@2@@tr1@std@@QAEAAIABI@Z 00402f20 f i MapTree.obj
 0001:00001fb0       ?erase@?$_Hash@V?$_Umap_traits@IIV?$_Hash_compare@IV?$hash@I@std@@U?$equal_to@I@2@@std@@V?$allocator@U?$pair@$$CBII@std@@@2@$0A@@tr1@std@@@std@@QAEIABI@Z 00402fb0 f i MapTree.obj
 0001:00002020       ??0?$basic_stringstream@DU?$char_traits@D@std@@V?$allocator@D@2@@std@@QAE@H@Z 00403020 f i MapTree.obj
 0001:000020c0       ?str@?$basic_stringstream@DU?$char_traits@D@std@@V?$allocator@D@2@@std@@QBE?AV?$basic_string@DU?$char_traits@D@std@@V?$allocator@D@2@@2@XZ 004030c0 f i MapTree.obj
 0001:000020e0       ??1?$basic_stringbuf@DU?$char_traits@D@std@@V?$allocator@D@2@@std@@UAE@XZ 004030e0 f i MapTree.obj
 0001:00002150       ?overflow@?$basic_stringbuf@DU?$char_traits@D@std@@V?$allocator@D@2@@std@@MAEHH@Z 00403150 f i MapTree.obj
 0001:00002320       ?pbackfail@?$basic_stringbuf@DU?$char_traits@D@std@@V?$allocator@D@2@@std@@MAEHH@Z 00403320 f i MapTree.obj
 0001:00002370       ?underflow@?$basic_stringbuf@DU?$char_traits@D@std@@V?$allocator@D@2@@std@@MAEHXZ 00403370 f i MapTree.obj
 0001:000023e0       ?seekoff@?$basic_stringbuf@DU?$char_traits@D@std@@V?$allocator@D@2@@std@@MAE?AV?$fpos@H@2@_JHH@Z 004033e0 f i MapTree.obj
 0001:00002590       ?seekpos@?$basic_stringbuf@DU?$char_traits@D@std@@V?$allocator@D@2@@std@@MAE?AV?$fpos@H@2@V32@H@Z 00403590 f i MapTree.obj
 0001:000026c0       ??_E?$basic_stringstream@DU?$char_traits@D@std@@V?$allocator@D@2@@std@@UAEPAXI@Z 004036c0 f i  CIL library: CIL module
 0001:000026c0       ??_G?$basic_stringstream@DU?$char_traits@D@std@@V?$allocator@D@2@@std@@UAEPAXI@Z 004036c0 f i MapTree.obj
 0001:00002750       ??_G?$basic_stringbuf@DU?$char_traits@D@std@@V?$allocator@D@2@@std@@UAEPAXI@Z 00403750 f i MapTree.obj
 0001:00002750       ??_E?$basic_stringbuf@DU?$char_traits@D@std@@V?$allocator@D@2@@std@@UAEPAXI@Z 00403750 f i  CIL library: CIL module
 0001:00002780       ?assign@?$basic_string@DU?$char_traits@D@std@@V?$allocator@D@2@@std@@QAEAAV12@$$QAV12@@Z 00403780 f i MapTree.obj
 0001:00002800       ?append@?$basic_string@DU?$char_traits@D@std@@V?$allocator@D@2@@std@@QAEAAV12@PBDI@Z 00403800 f i MapTree.obj
 0001:00002920       ?assign@?$basic_string@DU?$char_traits@D@std@@V?$allocator@D@2@@std@@QAEAAV12@ABV12@II@Z 00403920 f i MapTree.obj
 0001:00002a10       ?allocate@?$allocator@D@std@@QAEPADI@Z 00403a10 f i MapTree.obj
 0001:00002a70       ??0?$_Hash@V?$_Umap_traits@I_NV?$_Hash_compare@IV?$hash@I@std@@U?$equal_to@I@2@@std@@V?$allocator@U?$pair@$$CBI_N@std@@@2@$0A@@tr1@std@@@std@@QAE@ABV?$_Hash_compare@IV?$hash@I@std@@U?$equal_to@I@2@@1@ABV?$allocator@U?$pair@$$CBI_N@std@@@1@@Z 00403a70 f i MapTree.obj
 0001:00002a70       ??0?$_Hash@V?$_Umap_traits@IIV?$_Hash_compare@IV?$hash@I@std@@U?$equal_to@I@2@@std@@V?$allocator@U?$pair@$$CBII@std@@@2@$0A@@tr1@std@@@std@@QAE@ABV?$_Hash_compare@IV?$hash@I@std@@U?$equal_to@I@2@@1@ABV?$allocator@U?$pair@$$CBII@std@@@1@@Z 00403a70 f i MapTree.obj
 0001:00002a70       ??0?$_Hash@V?$_Umap_traits@IPAVStaticMapTree@VMAP@@V?$_Hash_compare@IV?$hash@I@std@@U?$equal_to@I@2@@std@@V?$allocator@U?$pair@$$CBIPAVStaticMapTree@VMAP@@@std@@@4@$0A@@tr1@std@@@std@@QAE@ABV?$_Hash_compare@IV?$hash@I@std@@U?$equal_to@I@2@@1@ABV?$allocator@U?$pair@$$CBIPAVStaticMapTree@VMAP@@@std@@@1@@Z 00403a70 f i VMapManager2.obj
 0001:00002b60       ?lower_bound@?$_Hash@V?$_Umap_traits@IPAVStaticMapTree@VMAP@@V?$_Hash_compare@IV?$hash@I@std@@U?$equal_to@I@2@@std@@V?$allocator@U?$pair@$$CBIPAVStaticMapTree@VMAP@@@std@@@4@$0A@@tr1@std@@@std@@QAE?AV?$_List_iterator@V?$_List_val@U?$pair@$$CBIPAVStaticMapTree@VMAP@@@std@@V?$allocator@U?$pair@$$CBIPAVStaticMapTree@VMAP@@@std@@@2@@std@@@2@ABI@Z 00403b60 f i VMapManager2.obj
 0001:00002b60       ?lower_bound@?$_Hash@V?$_Umap_traits@IIV?$_Hash_compare@IV?$hash@I@std@@U?$equal_to@I@2@@std@@V?$allocator@U?$pair@$$CBII@std@@@2@$0A@@tr1@std@@@std@@QAE?AV?$_List_iterator@V?$_List_val@U?$pair@$$CBII@std@@V?$allocator@U?$pair@$$CBII@std@@@2@@std@@@2@ABI@Z 00403b60 f i MapTree.obj
 0001:00002b60       ?lower_bound@?$_Hash@V?$_Umap_traits@I_NV?$_Hash_compare@IV?$hash@I@std@@U?$equal_to@I@2@@std@@V?$allocator@U?$pair@$$CBI_N@std@@@2@$0A@@tr1@std@@@std@@QAE?AV?$_List_iterator@V?$_List_val@U?$pair@$$CBI_N@std@@V?$allocator@U?$pair@$$CBI_N@std@@@2@@std@@@2@ABI@Z 00403b60 f i MapTree.obj
 0001:00002b60       ?lower_bound@?$_Hash@V?$_Umap_traits@IPAVStaticMapTree@VMAP@@V?$_Hash_compare@IV?$hash@I@std@@U?$equal_to@I@2@@std@@V?$allocator@U?$pair@$$CBIPAVStaticMapTree@VMAP@@@std@@@4@$0A@@tr1@std@@@std@@QBE?AV?$_List_const_iterator@V?$_List_val@U?$pair@$$CBIPAVStaticMapTree@VMAP@@@std@@V?$allocator@U?$pair@$$CBIPAVStaticMapTree@VMAP@@@std@@@2@@std@@@2@ABI@Z 00403b60 f i VMapManager2.obj
 0001:00002c20       ?equal_range@?$_Hash@V?$_Umap_traits@IIV?$_Hash_compare@IV?$hash@I@std@@U?$equal_to@I@2@@std@@V?$allocator@U?$pair@$$CBII@std@@@2@$0A@@tr1@std@@@std@@QAE?AU?$pair@V?$_List_iterator@V?$_List_val@U?$pair@$$CBII@std@@V?$allocator@U?$pair@$$CBII@std@@@2@@std@@@std@@V12@@2@ABI@Z 00403c20 f i MapTree.obj
 0001:00002c20       ?equal_range@?$_Hash@V?$_Umap_traits@IPAVStaticMapTree@VMAP@@V?$_Hash_compare@IV?$hash@I@std@@U?$equal_to@I@2@@std@@V?$allocator@U?$pair@$$CBIPAVStaticMapTree@VMAP@@@std@@@4@$0A@@tr1@std@@@std@@QAE?AU?$pair@V?$_List_iterator@V?$_List_val@U?$pair@$$CBIPAVStaticMapTree@VMAP@@@std@@V?$allocator@U?$pair@$$CBIPAVStaticMapTree@VMAP@@@std@@@2@@std@@@std@@V12@@2@ABI@Z 00403c20 f i VMapManager2.obj
 0001:00002c20       ?equal_range@?$_Hash@V?$_Umap_traits@IIV?$_Hash_compare@IV?$hash@I@std@@U?$equal_to@I@2@@std@@V?$allocator@U?$pair@$$CBII@std@@@2@$0A@@tr1@std@@@std@@QBE?AU?$pair@V?$_List_const_iterator@V?$_List_val@U?$pair@$$CBII@std@@V?$allocator@U?$pair@$$CBII@std@@@2@@std@@@std@@V12@@2@ABI@Z 00403c20 f i MapTree.obj
 0001:00002cf0       ??1?$list@U?$pair@$$CBII@std@@V?$allocator@U?$pair@$$CBII@std@@@2@@std@@QAE@XZ 00403cf0 f i MapTree.obj
 0001:00002cf0       ??1?$list@U?$pair@$$CBIPAVStaticMapTree@VMAP@@@std@@V?$allocator@U?$pair@$$CBIPAVStaticMapTree@VMAP@@@std@@@2@@std@@QAE@XZ 00403cf0 f i VMapManager2.obj
 0001:00002cf0       ??1?$list@U?$pair@$$CBI_N@std@@V?$allocator@U?$pair@$$CBI_N@std@@@2@@std@@QAE@XZ 00403cf0 f i MapTree.obj
 0001:00002d30       ?str@?$basic_stringbuf@DU?$char_traits@D@std@@V?$allocator@D@2@@std@@QBE?AV?$basic_string@DU?$char_traits@D@std@@V?$allocator@D@2@@2@XZ 00403d30 f i MapTree.obj
 0001:00002e80       ??1sentry@?$basic_ostream@DU?$char_traits@D@std@@@std@@QAE@XZ 00403e80 f i MapTree.obj
 0001:00002f00       ?append@?$basic_string@DU?$char_traits@D@std@@V?$allocator@D@2@@std@@QAEAAV12@ABV12@II@Z 00403f00 f i MapTree.obj
 0001:00002ff0       ?assign@?$basic_string@DU?$char_traits@D@std@@V?$allocator@D@2@@std@@QAEAAV12@PBDI@Z 00403ff0 f i MapTree.obj
 0001:000030f0       ?erase@?$basic_string@DU?$char_traits@D@std@@V?$allocator@D@2@@std@@QAEAAV12@II@Z 004040f0 f i MapTree.obj
 0001:00003180       ?_Grow@?$basic_string@DU?$char_traits@D@std@@V?$allocator@D@2@@std@@QAE_NI_N@Z 00404180 f i MapTree.obj
 0001:00003230       ??1_Sentry_base@?$basic_ostream@DU?$char_traits@D@std@@@std@@QAE@XZ 00404230 f i MapTree.obj
 0001:00003250       ?_Copy@?$basic_string@DU?$char_traits@D@std@@V?$allocator@D@2@@std@@QAEXII@Z 00404250 f i MapTree.obj
 0001:000033c0       ??$?6DU?$char_traits@D@std@@_J@std@@YAAAV?$basic_ostream@DU?$char_traits@D@std@@@0@AAV10@ABU?$_Smanip@_J@0@@Z 004043c0 f i MapTree.obj
 0001:000033f0       ??$?6U?$char_traits@D@std@@@std@@YAAAV?$basic_ostream@DU?$char_traits@D@std@@@0@AAV10@PBD@Z 004043f0 f i MapTree.obj
 0001:00003640       ??$intersectPoint@VAreaInfoCallback@VMAP@@@BIH@@QBEXABVVector3@G3D@@AAVAreaInfoCallback@VMAP@@@Z 00404640 f i MapTree.obj
 0001:00003850       ??$intersectPoint@VLocationInfoCallback@VMAP@@@BIH@@QBEXABVVector3@G3D@@AAVLocationInfoCallback@VMAP@@@Z 00404850 f i MapTree.obj
 0001:00003a60       ??$intersectRay@VMapRayCallback@VMAP@@@BIH@@QBEXABVRay@G3D@@AAVMapRayCallback@VMAP@@AAM_N@Z 00404a60 f i MapTree.obj
 0001:000040b0       ??$?HDU?$char_traits@D@std@@V?$allocator@D@1@@std@@YA?AV?$basic_string@DU?$char_traits@D@std@@V?$allocator@D@2@@0@ABV10@$$QAV10@@Z 004050b0 f i MapTree.obj
 0001:00004100       ??$?HDU?$char_traits@D@std@@V?$allocator@D@1@@std@@YA?AV?$basic_string@DU?$char_traits@D@std@@V?$allocator@D@2@@0@ABV10@0@Z 00405100 f i MapTree.obj
 0001:000041c0       ?_Insert@?$_Hash@V?$_Umap_traits@I_NV?$_Hash_compare@IV?$hash@I@std@@U?$equal_to@I@2@@std@@V?$allocator@U?$pair@$$CBI_N@std@@@2@$0A@@tr1@std@@@std@@IAE?AU?$pair@V?$_List_iterator@V?$_List_val@U?$pair@$$CBI_N@std@@V?$allocator@U?$pair@$$CBI_N@std@@@2@@std@@@std@@_N@2@ABU?$pair@$$CBI_N@2@V?$_List_iterator@V?$_List_val@U?$pair@$$CBI_N@std@@V?$allocator@U?$pair@$$CBI_N@std@@@2@@std@@@2@@Z 004051c0 f i MapTree.obj
 0001:000041c0       ?_Insert@?$_Hash@V?$_Umap_traits@IIV?$_Hash_compare@IV?$hash@I@std@@U?$equal_to@I@2@@std@@V?$allocator@U?$pair@$$CBII@std@@@2@$0A@@tr1@std@@@std@@IAE?AU?$pair@V?$_List_iterator@V?$_List_val@U?$pair@$$CBII@std@@V?$allocator@U?$pair@$$CBII@std@@@2@@std@@@std@@_N@2@ABU?$pair@$$CBII@2@V?$_List_iterator@V?$_List_val@U?$pair@$$CBII@std@@V?$allocator@U?$pair@$$CBII@std@@@2@@std@@@2@@Z 004051c0 f i MapTree.obj
 0001:000042e0       ?insert@?$basic_string@DU?$char_traits@D@std@@V?$allocator@D@2@@std@@QAEAAV12@IABV12@II@Z 004052e0 f i MapTree.obj
 0001:00004460       ?_Check_size@?$_Hash@V?$_Umap_traits@IIV?$_Hash_compare@IV?$hash@I@std@@U?$equal_to@I@2@@std@@V?$allocator@U?$pair@$$CBII@std@@@2@$0A@@tr1@std@@@std@@IAEXXZ 00405460 f i MapTree.obj
 0001:00004460       ?_Check_size@?$_Hash@V?$_Umap_traits@I_NV?$_Hash_compare@IV?$hash@I@std@@U?$equal_to@I@2@@std@@V?$allocator@U?$pair@$$CBI_N@std@@@2@$0A@@tr1@std@@@std@@IAEXXZ 00405460 f i MapTree.obj
 0001:00004530       ??$_Uninit_move@PAV?$_List_iterator@V?$_List_val@U?$pair@$$CBIPAVStaticMapTree@VMAP@@@std@@V?$allocator@U?$pair@$$CBIPAVStaticMapTree@VMAP@@@std@@@2@@std@@@std@@PAV12@V?$allocator@V?$_List_iterator@V?$_List_val@U?$pair@$$CBIPAVStaticMapTree@VMAP@@@std@@V?$allocator@U?$pair@$$CBIPAVStaticMapTree@VMAP@@@std@@@2@@std@@@std@@@2@V12@@std@@YAPAV?$_List_iterator@V?$_List_val@U?$pair@$$CBIPAVStaticMapTree@VMAP@@@std@@V?$allocator@U?$pair@$$CBIPAVStaticMapTree@VMAP@@@std@@@2@@std@@@0@PAV10@00AAV?$allocator@V?$_List_iterator@V?$_List_val@U?$pair@$$CBIPAVStaticMapTree@VMAP@@@std@@V?$allocator@U?$pair@$$CBIPAVStaticMapTree@VMAP@@@std@@@2@@std@@@std@@@0@0U_Nonscalar_ptr_iterator_tag@0@@Z 00405530 f i VMapManager2.obj
 0001:00004530       ??$_Uninit_move@PAV?$_List_iterator@V?$_List_val@U?$pair@$$CBI_N@std@@V?$allocator@U?$pair@$$CBI_N@std@@@2@@std@@@std@@PAV12@V?$allocator@V?$_List_iterator@V?$_List_val@U?$pair@$$CBI_N@std@@V?$allocator@U?$pair@$$CBI_N@std@@@2@@std@@@std@@@2@V12@@std@@YAPAV?$_List_iterator@V?$_List_val@U?$pair@$$CBI_N@std@@V?$allocator@U?$pair@$$CBI_N@std@@@2@@std@@@0@PAV10@00AAV?$allocator@V?$_List_iterator@V?$_List_val@U?$pair@$$CBI_N@std@@V?$allocator@U?$pair@$$CBI_N@std@@@2@@std@@@std@@@0@0U_Nonscalar_ptr_iterator_tag@0@@Z 00405530 f i MapTree.obj
 0001:00004530       ??$_Uninit_move@PAV?$_List_iterator@V?$_List_val@U?$pair@$$CBV?$basic_string@DU?$char_traits@D@std@@V?$allocator@D@2@@std@@VManagedModel@VMAP@@@std@@V?$allocator@U?$pair@$$CBV?$basic_string@DU?$char_traits@D@std@@V?$allocator@D@2@@std@@VManagedModel@VMAP@@@std@@@2@@std@@@std@@PAV12@V?$allocator@V?$_List_iterator@V?$_List_val@U?$pair@$$CBV?$basic_string@DU?$char_traits@D@std@@V?$allocator@D@2@@std@@VManagedModel@VMAP@@@std@@V?$allocator@U?$pair@$$CBV?$basic_string@DU?$char_traits@D@std@@V?$allocator@D@2@@std@@VManagedModel@VMAP@@@std@@@2@@std@@@std@@@2@V12@@std@@YAPAV?$_List_iterator@V?$_List_val@U?$pair@$$CBV?$basic_string@DU?$char_traits@D@std@@V?$allocator@D@2@@std@@VManagedModel@VMAP@@@std@@V?$allocator@U?$pair@$$CBV?$basic_string@DU?$char_traits@D@std@@V?$allocator@D@2@@std@@VManagedModel@VMAP@@@std@@@2@@std@@@0@PAV10@00AAV?$allocator@V?$_List_iterator@V?$_List_val@U?$pair@$$CBV?$basic_string@DU?$char_traits@D@std@@V?$allocator@D@2@@std@@VManagedModel@VMAP@@@std@@V?$allocator@U?$pair@$$CBV?$basic_string@DU?$char_traits@D@std@@V?$allocator@D@2@@std@@VManagedModel@VMAP@@@std@@@2@@std@@@std@@@0@0U_Nonscalar_ptr_iterator_tag@0@@Z 00405530 f i VMapManager2.obj
 0001:00004530       ??$_Uninit_move@PAV?$_List_iterator@V?$_List_val@U?$pair@$$CBII@std@@V?$allocator@U?$pair@$$CBII@std@@@2@@std@@@std@@PAV12@V?$allocator@V?$_List_iterator@V?$_List_val@U?$pair@$$CBII@std@@V?$allocator@U?$pair@$$CBII@std@@@2@@std@@@std@@@2@V12@@std@@YAPAV?$_List_iterator@V?$_List_val@U?$pair@$$CBII@std@@V?$allocator@U?$pair@$$CBII@std@@@2@@std@@@0@PAV10@00AAV?$allocator@V?$_List_iterator@V?$_List_val@U?$pair@$$CBII@std@@V?$allocator@U?$pair@$$CBII@std@@@2@@std@@@std@@@0@0U_Nonscalar_ptr_iterator_tag@0@@Z 00405530 f i MapTree.obj
 0001:00004550       ??$_Buynode@U?$pair@I_N@std@@@?$_List_val@U?$pair@$$CBI_N@std@@V?$allocator@U?$pair@$$CBI_N@std@@@2@@std@@QAEPAU_Node@?$_List_nod@U?$pair@$$CBI_N@std@@V?$allocator@U?$pair@$$CBI_N@std@@@2@@1@PAU231@0$$QAU?$pair@I_N@1@@Z 00405550 f i MapTree.obj
 0001:000045c0       ??$_Buynode@U?$pair@$$CBII@std@@@?$_List_val@U?$pair@$$CBII@std@@V?$allocator@U?$pair@$$CBII@std@@@2@@std@@QAEPAU_Node@?$_List_nod@U?$pair@$$CBII@std@@V?$allocator@U?$pair@$$CBII@std@@@2@@1@PAU231@0$$QAU?$pair@$$CBII@1@@Z 004055c0 f i MapTree.obj
 0001:000045c0       ?_Buynode@?$_List_val@U?$pair@$$CBIPAVStaticMapTree@VMAP@@@std@@V?$allocator@U?$pair@$$CBIPAVStaticMapTree@VMAP@@@std@@@2@@std@@QAEPAU_Node@?$_List_nod@U?$pair@$$CBIPAVStaticMapTree@VMAP@@@std@@V?$allocator@U?$pair@$$CBIPAVStaticMapTree@VMAP@@@std@@@2@@2@PAU342@0ABU?$pair@$$CBIPAVStaticMapTree@VMAP@@@2@@Z 004055c0 f i VMapExtensions.obj
 0001:000045c0       ??$_Buynode@U?$pair@$$CBIPAVStaticMapTree@VMAP@@@std@@@?$_List_val@U?$pair@$$CBIPAVStaticMapTree@VMAP@@@std@@V?$allocator@U?$pair@$$CBIPAVStaticMapTree@VMAP@@@std@@@2@@std@@QAEPAU_Node@?$_List_nod@U?$pair@$$CBIPAVStaticMapTree@VMAP@@@std@@V?$allocator@U?$pair@$$CBIPAVStaticMapTree@VMAP@@@std@@@2@@1@PAU231@0$$QAU?$pair@$$CBIPAVStaticMapTree@VMAP@@@1@@Z 004055c0 f i VMapManager2.obj
 0001:000045c0       ??$_Buynode@U?$pair@II@std@@@?$_List_val@U?$pair@$$CBII@std@@V?$allocator@U?$pair@$$CBII@std@@@2@@std@@QAEPAU_Node@?$_List_nod@U?$pair@$$CBII@std@@V?$allocator@U?$pair@$$CBII@std@@@2@@1@PAU231@0$$QAU?$pair@II@1@@Z 004055c0 f i MapTree.obj
 0001:00004630       ??DMatrix3@G3D@@QBE?AVVector3@1@ABV21@@Z 00405630 f i ModelInstance.obj
 0001:00004690       ??DG3D@@YA?AVVector3@0@ABV10@ABVMatrix3@0@@Z 00405690 f i ModelInstance.obj
 0001:000046f0       ??0ModelInstance@VMAP@@QAE@ABVModelSpawn@1@PAVWorldModel@1@@Z 004056f0 f   ModelInstance.obj
 0001:000047e0       ??0ModelSpawn@VMAP@@QAE@ABV01@@Z 004057e0 f i ModelInstance.obj
 0001:00004870       ?intersectRay@ModelInstance@VMAP@@QBE_NABVRay@G3D@@AAM_N@Z 00405870 f   ModelInstance.obj
 0001:000049a0       ?intersectPoint@ModelInstance@VMAP@@QBEXABVVector3@G3D@@AAUAreaInfo@2@@Z 004059a0 f   ModelInstance.obj
 0001:00004b00       ?GetLocationInfo@ModelInstance@VMAP@@QBE_NABVVector3@G3D@@AAULocationInfo@2@@Z 00405b00 f   ModelInstance.obj
 0001:00004c50       ?GetLiquidLevel@ModelInstance@VMAP@@QBE_NABVVector3@G3D@@AAULocationInfo@2@AAM@Z 00405c50 f   ModelInstance.obj
 0001:00004d30       ?readFromFile@ModelSpawn@VMAP@@SA_NPAU_iobuf@@AAV12@@Z 00405d30 f   ModelInstance.obj
 0001:00004fb0       ?compare@?$char_traits@D@std@@SAHPBD0I@Z 00405fb0 f i TileAssembler.obj
 0001:00005030       ??1GroupModel@VMAP@@QAE@XZ 00406030 f i TileAssembler.obj
 0001:000050c0       ?readChunk@VMAP@@YA_NPAU_iobuf@@PADPBDI@Z 004060c0 f   TileAssembler.obj
 0001:00005140       ??1WorldModel@VMAP@@QAE@XZ 00406140 f i TileAssembler.obj
 0001:000051b0       ??1?$vector@VGroupModel@VMAP@@V?$allocator@VGroupModel@VMAP@@@std@@@std@@QAE@XZ 004061b0 f i TileAssembler.obj
 0001:000051f0       ??1?$ReferenceCountedPointer@VMemoryManager@G3D@@@G3D@@QAE@XZ 004061f0 f i TileAssembler.obj
 0001:00005230       ?_Reserve@?$vector@VVector3@G3D@@V?$allocator@VVector3@G3D@@@std@@@std@@IAEXI@Z 00406230 f i TileAssembler.obj
 0001:00005230       ?_Reserve@?$vector@VMeshTriangle@VMAP@@V?$allocator@VMeshTriangle@VMAP@@@std@@@std@@IAEXI@Z 00406230 f i TileAssembler.obj
 0001:000052a0       ??1?$vector@HV?$allocator@H@std@@@std@@QAE@XZ 004062a0 f i MapBuilder.obj
 0001:000052a0       ??1?$vector@V?$_List_iterator@V?$_List_val@U?$pair@$$CBIPAVStaticMapTree@VMAP@@@std@@V?$allocator@U?$pair@$$CBIPAVStaticMapTree@VMAP@@@std@@@2@@std@@@std@@V?$allocator@V?$_List_iterator@V?$_List_val@U?$pair@$$CBIPAVStaticMapTree@VMAP@@@std@@V?$allocator@U?$pair@$$CBIPAVStaticMapTree@VMAP@@@std@@@2@@std@@@std@@@2@@std@@QAE@XZ 004062a0 f i VMapManager2.obj
 0001:000052a0       ??1?$vector@V?$_List_iterator@V?$_List_val@U?$pair@$$CBI_N@std@@V?$allocator@U?$pair@$$CBI_N@std@@@2@@std@@@std@@V?$allocator@V?$_List_iterator@V?$_List_val@U?$pair@$$CBI_N@std@@V?$allocator@U?$pair@$$CBI_N@std@@@2@@std@@@std@@@2@@std@@QAE@XZ 004062a0 f i MapTree.obj
 0001:000052a0       ?_Tidy@?$vector@VMeshTriangle@VMAP@@V?$allocator@VMeshTriangle@VMAP@@@std@@@std@@IAEXXZ 004062a0 f i TileAssembler.obj
 0001:000052a0       ?_Tidy@?$vector@IV?$allocator@I@std@@@std@@IAEXXZ 004062a0 f i MapTree.obj
 0001:000052a0       ?_Tidy@?$vector@VVector3@G3D@@V?$allocator@VVector3@G3D@@@std@@@std@@IAEXXZ 004062a0 f i TileAssembler.obj
 0001:000052a0       ??1?$vector@V?$_List_iterator@V?$_List_val@U?$pair@$$CBII@std@@V?$allocator@U?$pair@$$CBII@std@@@2@@std@@@std@@V?$allocator@V?$_List_iterator@V?$_List_val@U?$pair@$$CBII@std@@V?$allocator@U?$pair@$$CBII@std@@@2@@std@@@std@@@2@@std@@QAE@XZ 004062a0 f i MapTree.obj
 0001:000052a0       ??1?$vector@IV?$allocator@I@std@@@std@@QAE@XZ 004062a0 f i MapTree.obj
 0001:000052a0       ??1?$vector@V?$_List_iterator@V?$_List_val@U?$pair@$$CBV?$basic_string@DU?$char_traits@D@std@@V?$allocator@D@2@@std@@VManagedModel@VMAP@@@std@@V?$allocator@U?$pair@$$CBV?$basic_string@DU?$char_traits@D@std@@V?$allocator@D@2@@std@@VManagedModel@VMAP@@@std@@@2@@std@@@std@@V?$allocator@V?$_List_iterator@V?$_List_val@U?$pair@$$CBV?$basic_string@DU?$char_traits@D@std@@V?$allocator@D@2@@std@@VManagedModel@VMAP@@@std@@V?$allocator@U?$pair@$$CBV?$basic_string@DU?$char_traits@D@std@@V?$allocator@D@2@@std@@VManagedModel@VMAP@@@std@@@2@@std@@@std@@@2@@std@@QAE@XZ 004062a0 f i VMapManager2.obj
 0001:000052a0       ??1?$vector@VMeshTriangle@VMAP@@V?$allocator@VMeshTriangle@VMAP@@@std@@@std@@QAE@XZ 004062a0 f i TileAssembler.obj
 0001:000052a0       ??1?$vector@VVector3@G3D@@V?$allocator@VVector3@G3D@@@std@@@std@@QAE@XZ 004062a0 f i TileAssembler.obj
 0001:000052d0       ?_Reserve@?$vector@VGroupModel@VMAP@@V?$allocator@VGroupModel@VMAP@@@std@@@std@@IAEXI@Z 004062d0 f i TileAssembler.obj
 0001:00005350       ?reserve@?$vector@VVector3@G3D@@V?$allocator@VVector3@G3D@@@std@@@std@@QAEXI@Z 00406350 f i TileAssembler.obj
 0001:00005350       ?reserve@?$vector@VMeshTriangle@VMAP@@V?$allocator@VMeshTriangle@VMAP@@@std@@@std@@QAEXI@Z 00406350 f i TileAssembler.obj
 0001:00005440       ?reserve@?$vector@VGroupModel@VMAP@@V?$allocator@VGroupModel@VMAP@@@std@@@std@@QAEXI@Z 00406440 f i TileAssembler.obj
 0001:00005550       ?allocate@?$allocator@VVector3@G3D@@@std@@QAEPAVVector3@G3D@@I@Z 00406550 f i TileAssembler.obj
 0001:00005550       ?allocate@?$allocator@VMeshTriangle@VMAP@@@std@@QAEPAVMeshTriangle@VMAP@@I@Z 00406550 f i TileAssembler.obj
 0001:000055b0       ?allocate@?$allocator@VGroupModel@VMAP@@@std@@QAEPAVGroupModel@VMAP@@I@Z 004065b0 f i TileAssembler.obj
 0001:00005610       ??$?6DU?$char_traits@D@std@@V?$allocator@D@1@@std@@YAAAV?$basic_ostream@DU?$char_traits@D@std@@@0@AAV10@ABV?$basic_string@DU?$char_traits@D@std@@V?$allocator@D@2@@0@@Z 00406610 f i TileAssembler.obj
 0001:00005840       ??$?HDU?$char_traits@D@std@@V?$allocator@D@1@@std@@YA?AV?$basic_string@DU?$char_traits@D@std@@V?$allocator@D@2@@0@ABV10@PBD@Z 00406840 f i TileAssembler.obj
 0001:00005920       ??$?HDU?$char_traits@D@std@@V?$allocator@D@1@@std@@YA?AV?$basic_string@DU?$char_traits@D@std@@V?$allocator@D@2@@0@$$QAV10@ABV10@@Z 00406920 f i TileAssembler.obj
 0001:00005960       ??$?HDU?$char_traits@D@std@@V?$allocator@D@1@@std@@YA?AV?$basic_string@DU?$char_traits@D@std@@V?$allocator@D@2@@0@$$QAV10@PBD@Z 00406960 f i TileAssembler.obj
 0001:000059b0       ??4?$vector@IV?$allocator@I@std@@@std@@QAEAAV01@ABV01@@Z 004069b0 f i TileAssembler.obj
 0001:00005ae0       ?_Buy@?$vector@IV?$allocator@I@std@@@std@@IAE_NI@Z 00406ae0 f i TileAssembler.obj
 0001:00005b20       ??$_Ucopy@PAI@?$vector@IV?$allocator@I@std@@@std@@IAEPAIPAI00@Z 00406b20 f i TileAssembler.obj
 0001:00005b50       ??0?$basic_string@DU?$char_traits@D@std@@V?$allocator@D@2@@std@@QAE@PBD@Z 00406b50 f i VMapFactory.obj
 0001:00005b90       ?substr@?$basic_string@DU?$char_traits@D@std@@V?$allocator@D@2@@std@@QBE?AV12@II@Z 00406b90 f i VMapFactory.obj
 0001:00005bd0       ??1IVMapManager@VMAP@@UAE@XZ 00406bd0 f i VMapManager2.obj
 0001:00005be0       ??_EIVMapManager@VMAP@@UAEPAXI@Z 00406be0 f i  CIL library: CIL module
 0001:00005be0       ??_GIVMapManager@VMAP@@UAEPAXI@Z 00406be0 f i VMapManager2.obj
 0001:00005c10       ??R?$hash@V?$basic_string@DU?$char_traits@D@std@@V?$allocator@D@2@@std@@@std@@QBEIABV?$basic_string@DU?$char_traits@D@std@@V?$allocator@D@2@@1@@Z 00406c10 f i VMapManager2.obj
 0001:00005c60       ?processCommand@VMapManager2@VMAP@@UAE_NPAD@Z 00406c60 f i VMapManager2.obj
 0001:00005c70       ?getDirFileName@VMapManager2@VMAP@@UBE?AV?$basic_string@DU?$char_traits@D@std@@V?$allocator@D@2@@std@@IHH@Z 00406c70 f i VMapManager2.obj
 0001:00005ca0       ??_EVMapManager2@VMAP@@UAEPAXI@Z 00406ca0 f i  CIL library: CIL module
 0001:00005ca0       ??_GVMapManager2@VMAP@@UAEPAXI@Z 00406ca0 f i VMapManager2.obj
 0001:00005cd0       ??1?$unordered_map@V?$basic_string@DU?$char_traits@D@std@@V?$allocator@D@2@@std@@VManagedModel@VMAP@@V?$hash@V?$basic_string@DU?$char_traits@D@std@@V?$allocator@D@2@@std@@@2@U?$equal_to@V?$basic_string@DU?$char_traits@D@std@@V?$allocator@D@2@@std@@@2@V?$allocator@U?$pair@$$CBV?$basic_string@DU?$char_traits@D@std@@V?$allocator@D@2@@std@@VManagedModel@VMAP@@@std@@@2@@tr1@std@@QAE@XZ 00406cd0 f i VMapManager2.obj
 0001:00005d10       ??1VMapManager2@VMAP@@UAE@XZ 00406d10 f   VMapManager2.obj
 0001:00005ec0       ?getMapFileName@VMapManager2@VMAP@@SA?AV?$basic_string@DU?$char_traits@D@std@@V?$allocator@D@2@@std@@I@Z 00406ec0 f   VMapManager2.obj
 0001:00006000       ?loadMap@VMapManager2@VMAP@@UAE?AW4VMAPLoadResult@2@PBDIHH@Z 00407000 f   VMapManager2.obj
 0001:000060c0       ?_loadMap@VMapManager2@VMAP@@IAE_NIABV?$basic_string@DU?$char_traits@D@std@@V?$allocator@D@2@@std@@II@Z 004070c0 f   VMapManager2.obj
 0001:00006260       ?unloadMap@VMapManager2@VMAP@@UAEXI@Z 00407260 f   VMapManager2.obj
 0001:000062c0       ?unloadMap@VMapManager2@VMAP@@UAEXIHH@Z 004072c0 f   VMapManager2.obj
 0001:00006330       ?isInLineOfSight@VMapManager2@VMAP@@UAE_NIMMMMMM@Z 00407330 f   VMapManager2.obj
 0001:000063f0       ?getObjectHitPos@VMapManager2@VMAP@@UAE_NIMMMMMMAAM00M@Z 004073f0 f   VMapManager2.obj
 0001:000064e0       ?getHeight@VMapManager2@VMAP@@UAEMIMMMM@Z 004074e0 f   VMapManager2.obj
 0001:00006570       ?getAreaInfo@VMapManager2@VMAP@@UBE_NIMMAAMAAIAAH22@Z 00407570 f   VMapManager2.obj
 0001:00006640       ?GetLiquidLevel@VMapManager2@VMAP@@UBE_NIMMMEAAM0AAI@Z 00407640 f   VMapManager2.obj
 0001:00006720       ?acquireModelInstance@VMapManager2@VMAP@@QAEPAVWorldModel@2@ABV?$basic_string@DU?$char_traits@D@std@@V?$allocator@D@2@@std@@0@Z 00407720 f   VMapManager2.obj
 0001:00006900       ??1?$pair@V?$basic_string@DU?$char_traits@D@std@@V?$allocator@D@2@@std@@VManagedModel@VMAP@@@std@@QAE@XZ 00407900 f i VMapManager2.obj
 0001:00006930       ?releaseModelInstance@VMapManager2@VMAP@@QAEXABV?$basic_string@DU?$char_traits@D@std@@V?$allocator@D@2@@std@@@Z 00407930 f   VMapManager2.obj
 0001:000069c0       ?existsMap@VMapManager2@VMAP@@UAE_NPBDIHH@Z 004079c0 f   VMapManager2.obj
 0001:00006a70       ?erase@?$_Hash@V?$_Umap_traits@V?$basic_string@DU?$char_traits@D@std@@V?$allocator@D@2@@std@@VManagedModel@VMAP@@V?$_Hash_compare@V?$basic_string@DU?$char_traits@D@std@@V?$allocator@D@2@@std@@V?$hash@V?$basic_string@DU?$char_traits@D@std@@V?$allocator@D@2@@std@@@2@U?$equal_to@V?$basic_string@DU?$char_traits@D@std@@V?$allocator@D@2@@std@@@2@@2@V?$allocator@U?$pair@$$CBV?$basic_string@DU?$char_traits@D@std@@V?$allocator@D@2@@std@@VManagedModel@VMAP@@@std@@@2@$0A@@tr1@std@@@std@@QAE?AV?$_List_iterator@V?$_List_val@U?$pair@$$CBV?$basic_string@DU?$char_traits@D@std@@V?$allocator@D@2@@std@@VManagedModel@VMAP@@@std@@V?$allocator@U?$pair@$$CBV?$basic_string@DU?$char_traits@D@std@@V?$allocator@D@2@@std@@VManagedModel@VMAP@@@std@@@2@@std@@@2@V?$_List_const_iterator@V?$_List_val@U?$pair@$$CBV?$basic_string@DU?$char_traits@D@std@@V?$allocator@D@2@@std@@VManagedModel@VMAP@@@std@@V?$allocator@U?$pair@$$CBV?$basic_string@DU?$char_traits@D@std@@V?$allocator@D@2@@std@@VManagedModel@VMAP@@@std@@@2@@std@@@2@@Z 00407a70 f i VMapManager2.obj
 0001:00006b20       ?erase@?$_Hash@V?$_Umap_traits@IPAVStaticMapTree@VMAP@@V?$_Hash_compare@IV?$hash@I@std@@U?$equal_to@I@2@@std@@V?$allocator@U?$pair@$$CBIPAVStaticMapTree@VMAP@@@std@@@4@$0A@@tr1@std@@@std@@QAEIABI@Z 00407b20 f i VMapManager2.obj
 0001:00006b90       ??0?$_Hash@V?$_Umap_traits@V?$basic_string@DU?$char_traits@D@std@@V?$allocator@D@2@@std@@VManagedModel@VMAP@@V?$_Hash_compare@V?$basic_string@DU?$char_traits@D@std@@V?$allocator@D@2@@std@@V?$hash@V?$basic_string@DU?$char_traits@D@std@@V?$allocator@D@2@@std@@@2@U?$equal_to@V?$basic_string@DU?$char_traits@D@std@@V?$allocator@D@2@@std@@@2@@2@V?$allocator@U?$pair@$$CBV?$basic_string@DU?$char_traits@D@std@@V?$allocator@D@2@@std@@VManagedModel@VMAP@@@std@@@2@$0A@@tr1@std@@@std@@QAE@ABV?$_Hash_compare@V?$basic_string@DU?$char_traits@D@std@@V?$allocator@D@2@@std@@V?$hash@V?$basic_string@DU?$char_traits@D@std@@V?$allocator@D@2@@std@@@2@U?$equal_to@V?$basic_string@DU?$char_traits@D@std@@V?$allocator@D@2@@std@@@2@@1@ABV?$allocator@U?$pair@$$CBV?$basic_string@DU?$char_traits@D@std@@V?$allocator@D@2@@std@@VManagedModel@VMAP@@@std@@@1@@Z 00407b90 f i VMapManager2.obj
 0001:00006c80       ?lower_bound@?$_Hash@V?$_Umap_traits@V?$basic_string@DU?$char_traits@D@std@@V?$allocator@D@2@@std@@VManagedModel@VMAP@@V?$_Hash_compare@V?$basic_string@DU?$char_traits@D@std@@V?$allocator@D@2@@std@@V?$hash@V?$basic_string@DU?$char_traits@D@std@@V?$allocator@D@2@@std@@@2@U?$equal_to@V?$basic_string@DU?$char_traits@D@std@@V?$allocator@D@2@@std@@@2@@2@V?$allocator@U?$pair@$$CBV?$basic_string@DU?$char_traits@D@std@@V?$allocator@D@2@@std@@VManagedModel@VMAP@@@std@@@2@$0A@@tr1@std@@@std@@QAE?AV?$_List_iterator@V?$_List_val@U?$pair@$$CBV?$basic_string@DU?$char_traits@D@std@@V?$allocator@D@2@@std@@VManagedModel@VMAP@@@std@@V?$allocator@U?$pair@$$CBV?$basic_string@DU?$char_traits@D@std@@V?$allocator@D@2@@std@@VManagedModel@VMAP@@@std@@@2@@std@@@2@ABV?$basic_string@DU?$char_traits@D@std@@V?$allocator@D@2@@2@@Z 00407c80 f i VMapManager2.obj
 0001:00006db0       ??1?$list@U?$pair@$$CBV?$basic_string@DU?$char_traits@D@std@@V?$allocator@D@2@@std@@VManagedModel@VMAP@@@std@@V?$allocator@U?$pair@$$CBV?$basic_string@DU?$char_traits@D@std@@V?$allocator@D@2@@std@@VManagedModel@VMAP@@@std@@@2@@std@@QAE@XZ 00407db0 f i VMapManager2.obj
 0001:00006dd0       ?erase@?$list@U?$pair@$$CBV?$basic_string@DU?$char_traits@D@std@@V?$allocator@D@2@@std@@VManagedModel@VMAP@@@std@@V?$allocator@U?$pair@$$CBV?$basic_string@DU?$char_traits@D@std@@V?$allocator@D@2@@std@@VManagedModel@VMAP@@@std@@@2@@std@@QAE?AV?$_List_iterator@V?$_List_val@U?$pair@$$CBV?$basic_string@DU?$char_traits@D@std@@V?$allocator@D@2@@std@@VManagedModel@VMAP@@@std@@V?$allocator@U?$pair@$$CBV?$basic_string@DU?$char_traits@D@std@@V?$allocator@D@2@@std@@VManagedModel@VMAP@@@std@@@2@@std@@@2@V?$_List_const_iterator@V?$_List_val@U?$pair@$$CBV?$basic_string@DU?$char_traits@D@std@@V?$allocator@D@2@@std@@VManagedModel@VMAP@@@std@@V?$allocator@U?$pair@$$CBV?$basic_string@DU?$char_traits@D@std@@V?$allocator@D@2@@std@@VManagedModel@VMAP@@@std@@@2@@std@@@2@@Z 00407dd0 f i VMapManager2.obj
 0001:00006e40       ??R?$_Hash_compare@V?$basic_string@DU?$char_traits@D@std@@V?$allocator@D@2@@std@@V?$hash@V?$basic_string@DU?$char_traits@D@std@@V?$allocator@D@2@@std@@@2@U?$equal_to@V?$basic_string@DU?$char_traits@D@std@@V?$allocator@D@2@@std@@@2@@std@@QBE_NABV?$basic_string@DU?$char_traits@D@std@@V?$allocator@D@2@@1@0@Z 00407e40 f i VMapManager2.obj
 0001:00006ea0       ?clear@?$_Hash@V?$_Umap_traits@IPAVStaticMapTree@VMAP@@V?$_Hash_compare@IV?$hash@I@std@@U?$equal_to@I@2@@std@@V?$allocator@U?$pair@$$CBIPAVStaticMapTree@VMAP@@@std@@@4@$0A@@tr1@std@@@std@@QAEXXZ 00407ea0 f i VMapManager2.obj
 0001:00006ea0       ?clear@?$_Hash@V?$_Umap_traits@I_NV?$_Hash_compare@IV?$hash@I@std@@U?$equal_to@I@2@@std@@V?$allocator@U?$pair@$$CBI_N@std@@@2@$0A@@tr1@std@@@std@@QAEXXZ 00407ea0 f i MapTree.obj
 0001:00006ea0       ?clear@?$_Hash@V?$_Umap_traits@IIV?$_Hash_compare@IV?$hash@I@std@@U?$equal_to@I@2@@std@@V?$allocator@U?$pair@$$CBII@std@@@2@$0A@@tr1@std@@@std@@QAEXXZ 00407ea0 f i MapTree.obj
 0001:00006f30       ?clear@?$list@U?$pair@$$CBV?$basic_string@DU?$char_traits@D@std@@V?$allocator@D@2@@std@@VManagedModel@VMAP@@@std@@V?$allocator@U?$pair@$$CBV?$basic_string@DU?$char_traits@D@std@@V?$allocator@D@2@@std@@VManagedModel@VMAP@@@std@@@2@@std@@QAEXXZ 00407f30 f i VMapManager2.obj
 0001:00006f90       ?erase@?$list@U?$pair@$$CBI_N@std@@V?$allocator@U?$pair@$$CBI_N@std@@@2@@std@@QAE?AV?$_List_iterator@V?$_List_val@U?$pair@$$CBI_N@std@@V?$allocator@U?$pair@$$CBI_N@std@@@2@@std@@@2@V?$_List_const_iterator@V?$_List_val@U?$pair@$$CBI_N@std@@V?$allocator@U?$pair@$$CBI_N@std@@@2@@std@@@2@@Z 00407f90 f i MapTree.obj
 0001:00006f90       ?erase@?$list@U?$pair@$$CBIPAVStaticMapTree@VMAP@@@std@@V?$allocator@U?$pair@$$CBIPAVStaticMapTree@VMAP@@@std@@@2@@std@@QAE?AV?$_List_iterator@V?$_List_val@U?$pair@$$CBIPAVStaticMapTree@VMAP@@@std@@V?$allocator@U?$pair@$$CBIPAVStaticMapTree@VMAP@@@std@@@2@@std@@@2@V?$_List_const_iterator@V?$_List_val@U?$pair@$$CBIPAVStaticMapTree@VMAP@@@std@@V?$allocator@U?$pair@$$CBIPAVStaticMapTree@VMAP@@@std@@@2@@std@@@2@@Z 00407f90 f i VMapManager2.obj
 0001:00006f90       ?erase@?$list@U?$pair@$$CBII@std@@V?$allocator@U?$pair@$$CBII@std@@@2@@std@@QAE?AV?$_List_iterator@V?$_List_val@U?$pair@$$CBII@std@@V?$allocator@U?$pair@$$CBII@std@@@2@@std@@@2@V?$_List_const_iterator@V?$_List_val@U?$pair@$$CBII@std@@V?$allocator@U?$pair@$$CBII@std@@@2@@std@@@2@@Z 00407f90 f i MapTree.obj
 0001:00006fd0       ?clear@?$list@U?$pair@$$CBIPAVStaticMapTree@VMAP@@@std@@V?$allocator@U?$pair@$$CBIPAVStaticMapTree@VMAP@@@std@@@2@@std@@QAEXXZ 00407fd0 f i VMapManager2.obj
 0001:00007010       ?_Insert_n@?$vector@V?$_List_iterator@V?$_List_val@U?$pair@$$CBI_N@std@@V?$allocator@U?$pair@$$CBI_N@std@@@2@@std@@@std@@V?$allocator@V?$_List_iterator@V?$_List_val@U?$pair@$$CBI_N@std@@V?$allocator@U?$pair@$$CBI_N@std@@@2@@std@@@std@@@2@@std@@IAEXV?$_Vector_const_iterator@V?$_Vector_val@V?$_List_iterator@V?$_List_val@U?$pair@$$CBI_N@std@@V?$allocator@U?$pair@$$CBI_N@std@@@2@@std@@@std@@V?$allocator@V?$_List_iterator@V?$_List_val@U?$pair@$$CBI_N@std@@V?$allocator@U?$pair@$$CBI_N@std@@@2@@std@@@std@@@2@@std@@@2@IABV?$_List_iterator@V?$_List_val@U?$pair@$$CBI_N@std@@V?$allocator@U?$pair@$$CBI_N@std@@@2@@std@@@2@@Z 00408010 f i MapTree.obj
 0001:00007010       ?_Insert_n@?$vector@V?$_List_iterator@V?$_List_val@U?$pair@$$CBIPAVStaticMapTree@VMAP@@@std@@V?$allocator@U?$pair@$$CBIPAVStaticMapTree@VMAP@@@std@@@2@@std@@@std@@V?$allocator@V?$_List_iterator@V?$_List_val@U?$pair@$$CBIPAVStaticMapTree@VMAP@@@std@@V?$allocator@U?$pair@$$CBIPAVStaticMapTree@VMAP@@@std@@@2@@std@@@std@@@2@@std@@IAEXV?$_Vector_const_iterator@V?$_Vector_val@V?$_List_iterator@V?$_List_val@U?$pair@$$CBIPAVStaticMapTree@VMAP@@@std@@V?$allocator@U?$pair@$$CBIPAVStaticMapTree@VMAP@@@std@@@2@@std@@@std@@V?$allocator@V?$_List_iterator@V?$_List_val@U?$pair@$$CBIPAVStaticMapTree@VMAP@@@std@@V?$allocator@U?$pair@$$CBIPAVStaticMapTree@VMAP@@@std@@@2@@std@@@std@@@2@@std@@@2@IABV?$_List_iterator@V?$_List_val@U?$pair@$$CBIPAVStaticMapTree@VMAP@@@std@@V?$allocator@U?$pair@$$CBIPAVStaticMapTree@VMAP@@@std@@@2@@std@@@2@@Z 00408010 f i VMapManager2.obj
 0001:00007010       ?_Insert_n@?$vector@V?$_List_iterator@V?$_List_val@U?$pair@$$CBV?$basic_string@DU?$char_traits@D@std@@V?$allocator@D@2@@std@@VManagedModel@VMAP@@@std@@V?$allocator@U?$pair@$$CBV?$basic_string@DU?$char_traits@D@std@@V?$allocator@D@2@@std@@VManagedModel@VMAP@@@std@@@2@@std@@@std@@V?$allocator@V?$_List_iterator@V?$_List_val@U?$pair@$$CBV?$basic_string@DU?$char_traits@D@std@@V?$allocator@D@2@@std@@VManagedModel@VMAP@@@std@@V?$allocator@U?$pair@$$CBV?$basic_string@DU?$char_traits@D@std@@V?$allocator@D@2@@std@@VManagedModel@VMAP@@@std@@@2@@std@@@std@@@2@@std@@IAEXV?$_Vector_const_iterator@V?$_Vector_val@V?$_List_iterator@V?$_List_val@U?$pair@$$CBV?$basic_string@DU?$char_traits@D@std@@V?$allocator@D@2@@std@@VManagedModel@VMAP@@@std@@V?$allocator@U?$pair@$$CBV?$basic_string@DU?$char_traits@D@std@@V?$allocator@D@2@@std@@VManagedModel@VMAP@@@std@@@2@@std@@@std@@V?$allocator@V?$_List_iterator@V?$_List_val@U?$pair@$$CBV?$basic_string@DU?$char_traits@D@std@@V?$allocator@D@2@@std@@VManagedModel@VMAP@@@std@@V?$allocator@U?$pair@$$CBV?$basic_string@DU?$char_traits@D@std@@V?$allocator@D@2@@std@@VManagedModel@VMAP@@@std@@@2@@std@@@std@@@2@@std@@@2@IABV?$_List_iterator@V?$_List_val@U?$pair@$$CBV?$basic_string@DU?$char_traits@D@std@@V?$allocator@D@2@@std@@VManagedModel@VMAP@@@std@@V?$allocator@U?$pair@$$CBV?$basic_string@DU?$char_traits@D@std@@V?$allocator@D@2@@std@@VManagedModel@VMAP@@@std@@@2@@std@@@2@@Z 00408010 f i VMapManager2.obj
 0001:00007010       ?_Insert_n@?$vector@V?$_List_iterator@V?$_List_val@U?$pair@$$CBII@std@@V?$allocator@U?$pair@$$CBII@std@@@2@@std@@@std@@V?$allocator@V?$_List_iterator@V?$_List_val@U?$pair@$$CBII@std@@V?$allocator@U?$pair@$$CBII@std@@@2@@std@@@std@@@2@@std@@IAEXV?$_Vector_const_iterator@V?$_Vector_val@V?$_List_iterator@V?$_List_val@U?$pair@$$CBII@std@@V?$allocator@U?$pair@$$CBII@std@@@2@@std@@@std@@V?$allocator@V?$_List_iterator@V?$_List_val@U?$pair@$$CBII@std@@V?$allocator@U?$pair@$$CBII@std@@@2@@std@@@std@@@2@@std@@@2@IABV?$_List_iterator@V?$_List_val@U?$pair@$$CBII@std@@V?$allocator@U?$pair@$$CBII@std@@@2@@std@@@2@@Z 00408010 f i MapTree.obj
 0001:00007260       ?allocate@?$allocator@V?$_List_iterator@V?$_List_val@U?$pair@$$CBIPAVStaticMapTree@VMAP@@@std@@V?$allocator@U?$pair@$$CBIPAVStaticMapTree@VMAP@@@std@@@2@@std@@@std@@@std@@QAEPAV?$_List_iterator@V?$_List_val@U?$pair@$$CBIPAVStaticMapTree@VMAP@@@std@@V?$allocator@U?$pair@$$CBIPAVStaticMapTree@VMAP@@@std@@@2@@std@@@2@I@Z 00408260 f i VMapManager2.obj
 0001:00007260       ?allocate@?$allocator@V?$_List_iterator@V?$_List_val@U?$pair@$$CBII@std@@V?$allocator@U?$pair@$$CBII@std@@@2@@std@@@std@@@std@@QAEPAV?$_List_iterator@V?$_List_val@U?$pair@$$CBII@std@@V?$allocator@U?$pair@$$CBII@std@@@2@@std@@@2@I@Z 00408260 f i MapTree.obj
 0001:00007260       ?allocate@?$allocator@V?$_List_iterator@V?$_List_val@U?$pair@$$CBV?$basic_string@DU?$char_traits@D@std@@V?$allocator@D@2@@std@@VManagedModel@VMAP@@@std@@V?$allocator@U?$pair@$$CBV?$basic_string@DU?$char_traits@D@std@@V?$allocator@D@2@@std@@VManagedModel@VMAP@@@std@@@2@@std@@@std@@@std@@QAEPAV?$_List_iterator@V?$_List_val@U?$pair@$$CBV?$basic_string@DU?$char_traits@D@std@@V?$allocator@D@2@@std@@VManagedModel@VMAP@@@std@@V?$allocator@U?$pair@$$CBV?$basic_string@DU?$char_traits@D@std@@V?$allocator@D@2@@std@@VManagedModel@VMAP@@@std@@@2@@std@@@2@I@Z 00408260 f i VMapManager2.obj
 0001:00007260       ?allocate@?$allocator@V?$_List_iterator@V?$_List_val@U?$pair@$$CBI_N@std@@V?$allocator@U?$pair@$$CBI_N@std@@@2@@std@@@std@@@std@@QAEPAV?$_List_iterator@V?$_List_val@U?$pair@$$CBI_N@std@@V?$allocator@U?$pair@$$CBI_N@std@@@2@@std@@@2@I@Z 00408260 f i MapTree.obj
 0001:000072c0       ??$insert@U?$pair@V?$basic_string@DU?$char_traits@D@std@@V?$allocator@D@2@@std@@VManagedModel@VMAP@@@std@@@?$_Hash@V?$_Umap_traits@V?$basic_string@DU?$char_traits@D@std@@V?$allocator@D@2@@std@@VManagedModel@VMAP@@V?$_Hash_compare@V?$basic_string@DU?$char_traits@D@std@@V?$allocator@D@2@@std@@V?$hash@V?$basic_string@DU?$char_traits@D@std@@V?$allocator@D@2@@std@@@2@U?$equal_to@V?$basic_string@DU?$char_traits@D@std@@V?$allocator@D@2@@std@@@2@@2@V?$allocator@U?$pair@$$CBV?$basic_string@DU?$char_traits@D@std@@V?$allocator@D@2@@std@@VManagedModel@VMAP@@@std@@@2@$0A@@tr1@std@@@std@@QAE?AU?$pair@V?$_List_iterator@V?$_List_val@U?$pair@$$CBV?$basic_string@DU?$char_traits@D@std@@V?$allocator@D@2@@std@@VManagedModel@VMAP@@@std@@V?$allocator@U?$pair@$$CBV?$basic_string@DU?$char_traits@D@std@@V?$allocator@D@2@@std@@VManagedModel@VMAP@@@std@@@2@@std@@@std@@_N@1@$$QAU?$pair@V?$basic_string@DU?$char_traits@D@std@@V?$allocator@D@2@@std@@VManagedModel@VMAP@@@1@@Z 004082c0 f i VMapManager2.obj
 0001:00007320       ?_Insert@?$_Hash@V?$_Umap_traits@V?$basic_string@DU?$char_traits@D@std@@V?$allocator@D@2@@std@@VManagedModel@VMAP@@V?$_Hash_compare@V?$basic_string@DU?$char_traits@D@std@@V?$allocator@D@2@@std@@V?$hash@V?$basic_string@DU?$char_traits@D@std@@V?$allocator@D@2@@std@@@2@U?$equal_to@V?$basic_string@DU?$char_traits@D@std@@V?$allocator@D@2@@std@@@2@@2@V?$allocator@U?$pair@$$CBV?$basic_string@DU?$char_traits@D@std@@V?$allocator@D@2@@std@@VManagedModel@VMAP@@@std@@@2@$0A@@tr1@std@@@std@@IAE?AU?$pair@V?$_List_iterator@V?$_List_val@U?$pair@$$CBV?$basic_string@DU?$char_traits@D@std@@V?$allocator@D@2@@std@@VManagedModel@VMAP@@@std@@V?$allocator@U?$pair@$$CBV?$basic_string@DU?$char_traits@D@std@@V?$allocator@D@2@@std@@VManagedModel@VMAP@@@std@@@2@@std@@@std@@_N@2@ABU?$pair@$$CBV?$basic_string@DU?$char_traits@D@std@@V?$allocator@D@2@@std@@VManagedModel@VMAP@@@2@V?$_List_iterator@V?$_List_val@U?$pair@$$CBV?$basic_string@DU?$char_traits@D@std@@V?$allocator@D@2@@std@@VManagedModel@VMAP@@@std@@V?$allocator@U?$pair@$$CBV?$basic_string@DU?$char_traits@D@std@@V?$allocator@D@2@@std@@VManagedModel@VMAP@@@std@@@2@@std@@@2@@Z 00408320 f i VMapManager2.obj
 0001:00007500       ?_Insert@?$_Hash@V?$_Umap_traits@IPAVStaticMapTree@VMAP@@V?$_Hash_compare@IV?$hash@I@std@@U?$equal_to@I@2@@std@@V?$allocator@U?$pair@$$CBIPAVStaticMapTree@VMAP@@@std@@@4@$0A@@tr1@std@@@std@@IAE?AU?$pair@V?$_List_iterator@V?$_List_val@U?$pair@$$CBIPAVStaticMapTree@VMAP@@@std@@V?$allocator@U?$pair@$$CBIPAVStaticMapTree@VMAP@@@std@@@2@@std@@@std@@_N@2@ABU?$pair@$$CBIPAVStaticMapTree@VMAP@@@2@V?$_List_iterator@V?$_List_val@U?$pair@$$CBIPAVStaticMapTree@VMAP@@@std@@V?$allocator@U?$pair@$$CBIPAVStaticMapTree@VMAP@@@std@@@2@@std@@@2@@Z 00408500 f i VMapManager2.obj
 0001:00007620       ?_Check_size@?$_Hash@V?$_Umap_traits@V?$basic_string@DU?$char_traits@D@std@@V?$allocator@D@2@@std@@VManagedModel@VMAP@@V?$_Hash_compare@V?$basic_string@DU?$char_traits@D@std@@V?$allocator@D@2@@std@@V?$hash@V?$basic_string@DU?$char_traits@D@std@@V?$allocator@D@2@@std@@@2@U?$equal_to@V?$basic_string@DU?$char_traits@D@std@@V?$allocator@D@2@@std@@@2@@2@V?$allocator@U?$pair@$$CBV?$basic_string@DU?$char_traits@D@std@@V?$allocator@D@2@@std@@VManagedModel@VMAP@@@std@@@2@$0A@@tr1@std@@@std@@IAEXXZ 00408620 f i VMapManager2.obj
 0001:000076d0       ?_Splice_same@?$list@U?$pair@$$CBV?$basic_string@DU?$char_traits@D@std@@V?$allocator@D@2@@std@@VManagedModel@VMAP@@@std@@V?$allocator@U?$pair@$$CBV?$basic_string@DU?$char_traits@D@std@@V?$allocator@D@2@@std@@VManagedModel@VMAP@@@std@@@2@@std@@QAEXV?$_List_const_iterator@V?$_List_val@U?$pair@$$CBV?$basic_string@DU?$char_traits@D@std@@V?$allocator@D@2@@std@@VManagedModel@VMAP@@@std@@V?$allocator@U?$pair@$$CBV?$basic_string@DU?$char_traits@D@std@@V?$allocator@D@2@@std@@VManagedModel@VMAP@@@std@@@2@@std@@@2@AAV12@00I@Z 004086d0 f i VMapManager2.obj
 0001:00007740       ?_Check_size@?$_Hash@V?$_Umap_traits@IPAVStaticMapTree@VMAP@@V?$_Hash_compare@IV?$hash@I@std@@U?$equal_to@I@2@@std@@V?$allocator@U?$pair@$$CBIPAVStaticMapTree@VMAP@@@std@@@4@$0A@@tr1@std@@@std@@IAEXXZ 00408740 f i VMapManager2.obj
 0001:000077f0       ?_Splice_same@?$list@U?$pair@$$CBIPAVStaticMapTree@VMAP@@@std@@V?$allocator@U?$pair@$$CBIPAVStaticMapTree@VMAP@@@std@@@2@@std@@QAEXV?$_List_const_iterator@V?$_List_val@U?$pair@$$CBIPAVStaticMapTree@VMAP@@@std@@V?$allocator@U?$pair@$$CBIPAVStaticMapTree@VMAP@@@std@@@2@@std@@@2@AAV12@00I@Z 004087f0 f i VMapManager2.obj
 0001:000077f0       ?_Splice_same@?$list@U?$pair@$$CBII@std@@V?$allocator@U?$pair@$$CBII@std@@@2@@std@@QAEXV?$_List_const_iterator@V?$_List_val@U?$pair@$$CBII@std@@V?$allocator@U?$pair@$$CBII@std@@@2@@std@@@2@AAV12@00I@Z 004087f0 f i MapTree.obj
 0001:000077f0       ?_Splice_same@?$list@U?$pair@$$CBI_N@std@@V?$allocator@U?$pair@$$CBI_N@std@@@2@@std@@QAEXV?$_List_const_iterator@V?$_List_val@U?$pair@$$CBI_N@std@@V?$allocator@U?$pair@$$CBI_N@std@@@2@@std@@@2@AAV12@00I@Z 004087f0 f i MapTree.obj
 0001:00007860       ?_Reinsert@?$_Hash@V?$_Umap_traits@V?$basic_string@DU?$char_traits@D@std@@V?$allocator@D@2@@std@@VManagedModel@VMAP@@V?$_Hash_compare@V?$basic_string@DU?$char_traits@D@std@@V?$allocator@D@2@@std@@V?$hash@V?$basic_string@DU?$char_traits@D@std@@V?$allocator@D@2@@std@@@2@U?$equal_to@V?$basic_string@DU?$char_traits@D@std@@V?$allocator@D@2@@std@@@2@@2@V?$allocator@U?$pair@$$CBV?$basic_string@DU?$char_traits@D@std@@V?$allocator@D@2@@std@@VManagedModel@VMAP@@@std@@@2@$0A@@tr1@std@@@std@@IAEXV?$_List_iterator@V?$_List_val@U?$pair@$$CBV?$basic_string@DU?$char_traits@D@std@@V?$allocator@D@2@@std@@VManagedModel@VMAP@@@std@@V?$allocator@U?$pair@$$CBV?$basic_string@DU?$char_traits@D@std@@V?$allocator@D@2@@std@@VManagedModel@VMAP@@@std@@@2@@std@@@2@@Z 00408860 f i VMapManager2.obj
 0001:000078b0       ?_Reinsert@?$_Hash@V?$_Umap_traits@IPAVStaticMapTree@VMAP@@V?$_Hash_compare@IV?$hash@I@std@@U?$equal_to@I@2@@std@@V?$allocator@U?$pair@$$CBIPAVStaticMapTree@VMAP@@@std@@@4@$0A@@tr1@std@@@std@@IAEXV?$_List_iterator@V?$_List_val@U?$pair@$$CBIPAVStaticMapTree@VMAP@@@std@@V?$allocator@U?$pair@$$CBIPAVStaticMapTree@VMAP@@@std@@@2@@std@@@2@@Z 004088b0 f i VMapManager2.obj
 0001:00007900       ??$_Uninit_fill_n@PAV?$_List_iterator@V?$_List_val@U?$pair@$$CBV?$basic_string@DU?$char_traits@D@std@@V?$allocator@D@2@@std@@VManagedModel@VMAP@@@std@@V?$allocator@U?$pair@$$CBV?$basic_string@DU?$char_traits@D@std@@V?$allocator@D@2@@std@@VManagedModel@VMAP@@@std@@@2@@std@@@std@@IV12@V?$allocator@V?$_List_iterator@V?$_List_val@U?$pair@$$CBV?$basic_string@DU?$char_traits@D@std@@V?$allocator@D@2@@std@@VManagedModel@VMAP@@@std@@V?$allocator@U?$pair@$$CBV?$basic_string@DU?$char_traits@D@std@@V?$allocator@D@2@@std@@VManagedModel@VMAP@@@std@@@2@@std@@@std@@@2@V12@@std@@YAXPAV?$_List_iterator@V?$_List_val@U?$pair@$$CBV?$basic_string@DU?$char_traits@D@std@@V?$allocator@D@2@@std@@VManagedModel@VMAP@@@std@@V?$allocator@U?$pair@$$CBV?$basic_string@DU?$char_traits@D@std@@V?$allocator@D@2@@std@@VManagedModel@VMAP@@@std@@@2@@std@@@0@IPBV10@AAV?$allocator@V?$_List_iterator@V?$_List_val@U?$pair@$$CBV?$basic_string@DU?$char_traits@D@std@@V?$allocator@D@2@@std@@VManagedModel@VMAP@@@std@@V?$allocator@U?$pair@$$CBV?$basic_string@DU?$char_traits@D@std@@V?$allocator@D@2@@std@@VManagedModel@VMAP@@@std@@@2@@std@@@std@@@0@0U_Nonscalar_ptr_iterator_tag@0@@Z 00408900 f i VMapManager2.obj
 0001:00007900       ??$_Uninit_fill_n@PAV?$_List_iterator@V?$_List_val@U?$pair@$$CBII@std@@V?$allocator@U?$pair@$$CBII@std@@@2@@std@@@std@@IV12@V?$allocator@V?$_List_iterator@V?$_List_val@U?$pair@$$CBII@std@@V?$allocator@U?$pair@$$CBII@std@@@2@@std@@@std@@@2@V12@@std@@YAXPAV?$_List_iterator@V?$_List_val@U?$pair@$$CBII@std@@V?$allocator@U?$pair@$$CBII@std@@@2@@std@@@0@IPBV10@AAV?$allocator@V?$_List_iterator@V?$_List_val@U?$pair@$$CBII@std@@V?$allocator@U?$pair@$$CBII@std@@@2@@std@@@std@@@0@0U_Nonscalar_ptr_iterator_tag@0@@Z 00408900 f i MapTree.obj
 0001:00007900       ??$_Uninit_fill_n@PAV?$_List_iterator@V?$_List_val@U?$pair@$$CBIPAVStaticMapTree@VMAP@@@std@@V?$allocator@U?$pair@$$CBIPAVStaticMapTree@VMAP@@@std@@@2@@std@@@std@@IV12@V?$allocator@V?$_List_iterator@V?$_List_val@U?$pair@$$CBIPAVStaticMapTree@VMAP@@@std@@V?$allocator@U?$pair@$$CBIPAVStaticMapTree@VMAP@@@std@@@2@@std@@@std@@@2@V12@@std@@YAXPAV?$_List_iterator@V?$_List_val@U?$pair@$$CBIPAVStaticMapTree@VMAP@@@std@@V?$allocator@U?$pair@$$CBIPAVStaticMapTree@VMAP@@@std@@@2@@std@@@0@IPBV10@AAV?$allocator@V?$_List_iterator@V?$_List_val@U?$pair@$$CBIPAVStaticMapTree@VMAP@@@std@@V?$allocator@U?$pair@$$CBIPAVStaticMapTree@VMAP@@@std@@@2@@std@@@std@@@0@0U_Nonscalar_ptr_iterator_tag@0@@Z 00408900 f i VMapManager2.obj
 0001:00007900       ??$_Uninit_fill_n@PAV?$_List_iterator@V?$_List_val@U?$pair@$$CBI_N@std@@V?$allocator@U?$pair@$$CBI_N@std@@@2@@std@@@std@@IV12@V?$allocator@V?$_List_iterator@V?$_List_val@U?$pair@$$CBI_N@std@@V?$allocator@U?$pair@$$CBI_N@std@@@2@@std@@@std@@@2@V12@@std@@YAXPAV?$_List_iterator@V?$_List_val@U?$pair@$$CBI_N@std@@V?$allocator@U?$pair@$$CBI_N@std@@@2@@std@@@0@IPBV10@AAV?$allocator@V?$_List_iterator@V?$_List_val@U?$pair@$$CBI_N@std@@V?$allocator@U?$pair@$$CBI_N@std@@@2@@std@@@std@@@0@0U_Nonscalar_ptr_iterator_tag@0@@Z 00408900 f i MapTree.obj
 0001:00007920       ??$_Buynode@U?$pair@V?$basic_string@DU?$char_traits@D@std@@V?$allocator@D@2@@std@@VManagedModel@VMAP@@@std@@@?$_List_val@U?$pair@$$CBV?$basic_string@DU?$char_traits@D@std@@V?$allocator@D@2@@std@@VManagedModel@VMAP@@@std@@V?$allocator@U?$pair@$$CBV?$basic_string@DU?$char_traits@D@std@@V?$allocator@D@2@@std@@VManagedModel@VMAP@@@std@@@2@@std@@QAEPAU_Node@?$_List_nod@U?$pair@$$CBV?$basic_string@DU?$char_traits@D@std@@V?$allocator@D@2@@std@@VManagedModel@VMAP@@@std@@V?$allocator@U?$pair@$$CBV?$basic_string@DU?$char_traits@D@std@@V?$allocator@D@2@@std@@VManagedModel@VMAP@@@std@@@2@@1@PAU231@0$$QAU?$pair@V?$basic_string@DU?$char_traits@D@std@@V?$allocator@D@2@@std@@VManagedModel@VMAP@@@1@@Z 00408920 f i VMapManager2.obj
 0001:00007a00       _fabsf                     00408a00 f i WorldModel.obj
 0001:00007a20       ?IntersectTriangle@VMAP@@YA_NABVMeshTriangle@1@V?$_Vector_const_iterator@V?$_Vector_val@VVector3@G3D@@V?$allocator@VVector3@G3D@@@std@@@std@@@std@@ABVRay@G3D@@AAM@Z 00408a20 f   WorldModel.obj
 0001:00007cd0       ??4WmoLiquid@VMAP@@QAEAAV01@ABV01@@Z 00408cd0 f   WorldModel.obj
 0001:00007da0       ?GetLiquidHeight@WmoLiquid@VMAP@@QBE_NABVVector3@G3D@@AAM@Z 00408da0 f   WorldModel.obj
 0001:00007f10       ?readFromFile@WmoLiquid@VMAP@@SA_NPAU_iobuf@@AAPAV12@@Z 00408f10 f   WorldModel.obj
 0001:00008040       ??0GroupModel@VMAP@@QAE@ABV01@@Z 00409040 f   WorldModel.obj
 0001:00008170       ?readFromFile@GroupModel@VMAP@@QAE_NPAU_iobuf@@@Z 00409170 f   WorldModel.obj
 0001:00008430       ?IsInsideObject@GroupModel@VMAP@@QBE_NABVVector3@G3D@@0AAM@Z 00409430 f   WorldModel.obj
 0001:00008550       ??RWModelRayCallBack@VMAP@@QAE_NABVRay@G3D@@IAAM_N@Z 00409550 f i WorldModel.obj
 0001:000085b0       ?IntersectRay@WorldModel@VMAP@@QBE_NABVRay@G3D@@AAM_N@Z 004095b0 f   WorldModel.obj
 0001:00008650       ??RWModelAreaCallback@VMAP@@QAEXABVVector3@G3D@@I@Z 00409650 f i WorldModel.obj
 0001:000086a0       ?IntersectPoint@WorldModel@VMAP@@QBE_NABVVector3@G3D@@0AAMAAUAreaInfo@2@@Z 004096a0 f   WorldModel.obj
 0001:00008740       ?GetLocationInfo@WorldModel@VMAP@@QBE_NABVVector3@G3D@@0AAMAAULocationInfo@2@@Z 00409740 f   WorldModel.obj
 0001:000087d0       ?readFile@WorldModel@VMAP@@QAE_NABV?$basic_string@DU?$char_traits@D@std@@V?$allocator@D@2@@std@@@Z 004097d0 f   WorldModel.obj
 0001:00008980       ??0?$vector@IV?$allocator@I@std@@@std@@QAE@ABV01@@Z 00409980 f i WorldModel.obj
 0001:00008a40       ??0?$vector@VVector3@G3D@@V?$allocator@VVector3@G3D@@@std@@@std@@QAE@ABV01@@Z 00409a40 f i WorldModel.obj
 0001:00008a40       ??0?$vector@VMeshTriangle@VMAP@@V?$allocator@VMeshTriangle@VMAP@@@std@@@std@@QAE@ABV01@@Z 00409a40 f i WorldModel.obj
 0001:00008b10       ?resize@?$vector@VVector3@G3D@@V?$allocator@VVector3@G3D@@@std@@@std@@QAEXI@Z 00409b10 f i WorldModel.obj
 0001:00008be0       ?clear@?$vector@VVector3@G3D@@V?$allocator@VVector3@G3D@@@std@@@std@@QAEXXZ 00409be0 f i WorldModel.obj
 0001:00008c20       ?resize@?$vector@VMeshTriangle@VMAP@@V?$allocator@VMeshTriangle@VMAP@@@std@@@std@@QAEXI@Z 00409c20 f i WorldModel.obj
 0001:00008cf0       ?resize@?$vector@VGroupModel@VMAP@@V?$allocator@VGroupModel@VMAP@@@std@@@std@@QAEXI@Z 00409cf0 f i WorldModel.obj
 0001:00008d90       ?_Buy@?$vector@VVector3@G3D@@V?$allocator@VVector3@G3D@@@std@@@std@@IAE_NI@Z 00409d90 f i WorldModel.obj
 0001:00008d90       ?_Buy@?$vector@VMeshTriangle@VMAP@@V?$allocator@VMeshTriangle@VMAP@@@std@@@std@@IAE_NI@Z 00409d90 f i WorldModel.obj
 0001:00008dd0       ?erase@?$vector@VGroupModel@VMAP@@V?$allocator@VGroupModel@VMAP@@@std@@@std@@QAE?AV?$_Vector_iterator@V?$_Vector_val@VGroupModel@VMAP@@V?$allocator@VGroupModel@VMAP@@@std@@@std@@@2@V?$_Vector_const_iterator@V?$_Vector_val@VGroupModel@VMAP@@V?$allocator@VGroupModel@VMAP@@@std@@@std@@@2@0@Z 00409dd0 f i WorldModel.obj
 0001:00008e30       ??$intersectRay@UGModelRayCallback@VMAP@@@BIH@@QBEXABVRay@G3D@@AAUGModelRayCallback@VMAP@@AAM_N@Z 00409e30 f i WorldModel.obj
 0001:00009490       ??$intersectRay@UWModelRayCallBack@VMAP@@@BIH@@QBEXABVRay@G3D@@AAUWModelRayCallBack@VMAP@@AAM_N@Z 0040a490 f i WorldModel.obj
 0001:00009ae0       ??$intersectPoint@VWModelAreaCallback@VMAP@@@BIH@@QBEXABVVector3@G3D@@AAVWModelAreaCallback@VMAP@@@Z 0040aae0 f i WorldModel.obj
 0001:00009ce0       ??$_Uninit_def_fill_n@PAVVector3@G3D@@IV12@V?$allocator@VVector3@G3D@@@std@@V12@@std@@YAXPAVVector3@G3D@@IPBV12@AAV?$allocator@VVector3@G3D@@@0@0U_Nonscalar_ptr_iterator_tag@0@@Z 0040ace0 f i WorldModel.obj
 0001:00009d20       ??$_Uninit_def_fill_n@PAVMeshTriangle@VMAP@@IV12@V?$allocator@VMeshTriangle@VMAP@@@std@@V12@@std@@YAXPAVMeshTriangle@VMAP@@IPBV12@AAV?$allocator@VMeshTriangle@VMAP@@@0@0U_Nonscalar_ptr_iterator_tag@0@@Z 0040ad20 f i WorldModel.obj
 0001:00009d50       ??$_Uninit_def_fill_n@PAVGroupModel@VMAP@@IV12@V?$allocator@VGroupModel@VMAP@@@std@@V12@@std@@YAXPAVGroupModel@VMAP@@IPBV12@AAV?$allocator@VGroupModel@VMAP@@@0@0U_Nonscalar_ptr_iterator_tag@0@@Z 0040ad50 f i WorldModel.obj
 0001:00009e60       ??$_Move@PAVGroupModel@VMAP@@PAV12@@std@@YAPAVGroupModel@VMAP@@PAV12@00U_Nonscalar_ptr_iterator_tag@0@@Z 0040ae60 f i WorldModel.obj
 0001:00009e60       ??$_Copy_impl@PAVGroupModel@VMAP@@PAV12@@std@@YAPAVGroupModel@VMAP@@PAV12@00U_Nonscalar_ptr_iterator_tag@0@@Z 0040ae60 f i VMapExtensions.obj
 0001:00009f40       ??4?$vector@VVector3@G3D@@V?$allocator@VVector3@G3D@@@std@@@std@@QAEAAV01@ABV01@@Z 0040af40 f i WorldModel.obj
 0001:0000a060       ??4?$vector@VMeshTriangle@VMAP@@V?$allocator@VMeshTriangle@VMAP@@@std@@@std@@QAEAAV01@ABV01@@Z 0040b060 f i WorldModel.obj
 0001:0000a1b0       ??$_Uninit_copy@V?$_Vector_const_iterator@V?$_Vector_val@IV?$allocator@I@std@@@std@@@std@@PAIV?$allocator@I@2@@std@@YAPAIV?$_Vector_const_iterator@V?$_Vector_val@IV?$allocator@I@std@@@std@@@0@0PAIAAV?$allocator@I@0@U_Nonscalar_ptr_iterator_tag@0@@Z 0040b1b0 f i WorldModel.obj
 0001:0000a1e0       ??$_Uninit_copy@V?$_Vector_const_iterator@V?$_Vector_val@VVector3@G3D@@V?$allocator@VVector3@G3D@@@std@@@std@@@std@@PAVVector3@G3D@@V?$allocator@VVector3@G3D@@@2@@std@@YAPAVVector3@G3D@@V?$_Vector_const_iterator@V?$_Vector_val@VVector3@G3D@@V?$allocator@VVector3@G3D@@@std@@@std@@@0@0PAV12@AAV?$allocator@VVector3@G3D@@@0@U_Nonscalar_ptr_iterator_tag@0@@Z 0040b1e0 f i WorldModel.obj
 0001:0000a1e0       ??$_Uninit_copy@V?$_Vector_const_iterator@V?$_Vector_val@VMeshTriangle@VMAP@@V?$allocator@VMeshTriangle@VMAP@@@std@@@std@@@std@@PAVMeshTriangle@VMAP@@V?$allocator@VMeshTriangle@VMAP@@@2@@std@@YAPAVMeshTriangle@VMAP@@V?$_Vector_const_iterator@V?$_Vector_val@VMeshTriangle@VMAP@@V?$allocator@VMeshTriangle@VMAP@@@std@@@std@@@0@0PAV12@AAV?$allocator@VMeshTriangle@VMAP@@@0@U_Nonscalar_ptr_iterator_tag@0@@Z 0040b1e0 f i WorldModel.obj
 0001:0000a220       ??$_Copy_impl@PAVVector3@G3D@@PAV12@@std@@YAPAVVector3@G3D@@PAV12@00@Z 0040b220 f i WorldModel.obj
 0001:0000a250       ??$_Copy_impl@PAVMeshTriangle@VMAP@@PAV12@@std@@YAPAVMeshTriangle@VMAP@@PAV12@00@Z 0040b250 f i WorldModel.obj
 0001:0000a280       ??$_Uninit_copy@PAVVector3@G3D@@PAV12@V?$allocator@VVector3@G3D@@@std@@@std@@YAPAVVector3@G3D@@PAV12@00AAV?$allocator@VVector3@G3D@@@0@U_Nonscalar_ptr_iterator_tag@0@@Z 0040b280 f i WorldModel.obj
 0001:0000a280       ??$_Uninit_move@PAVVector3@G3D@@PAV12@V?$allocator@VVector3@G3D@@@std@@V12@@std@@YAPAVVector3@G3D@@PAV12@00AAV?$allocator@VVector3@G3D@@@0@0U_Nonscalar_ptr_iterator_tag@0@@Z 0040b280 f i TileAssembler.obj
 0001:0000a280       ??$_Uninit_copy@PAVMeshTriangle@VMAP@@PAV12@V?$allocator@VMeshTriangle@VMAP@@@std@@@std@@YAPAVMeshTriangle@VMAP@@PAV12@00AAV?$allocator@VMeshTriangle@VMAP@@@0@U_Nonscalar_ptr_iterator_tag@0@@Z 0040b280 f i WorldModel.obj
 0001:0000a280       ??$_Uninit_move@PAVMeshTriangle@VMAP@@PAV12@V?$allocator@VMeshTriangle@VMAP@@@std@@V12@@std@@YAPAVMeshTriangle@VMAP@@PAV12@00AAV?$allocator@VMeshTriangle@VMAP@@@0@0U_Nonscalar_ptr_iterator_tag@0@@Z 0040b280 f i TileAssembler.obj
 0001:0000a2b0       ?getDirContents@MMAP@@YA?AW4ListFilesResult@1@AAV?$vector@V?$basic_string@DU?$char_traits@D@std@@V?$allocator@D@2@@std@@V?$allocator@V?$basic_string@DU?$char_traits@D@std@@V?$allocator@D@2@@std@@@2@@std@@V?$basic_string@DU?$char_traits@D@std@@V?$allocator@D@2@@4@1_N@Z 0040b2b0 f i generator.obj
 0001:0000a4d0       ?checkDirectories@@YA_N_N@Z 0040b4d0 f   generator.obj
 0001:0000a730       ?handleArgs@@YA_NHPAPADAAH11AAMAA_N333333@Z 0040b730 f   generator.obj
 0001:0000aea0       _main                      0040bea0 f   generator.obj
 0001:0000b100       ?push_back@?$vector@V?$basic_string@DU?$char_traits@D@std@@V?$allocator@D@2@@std@@V?$allocator@V?$basic_string@DU?$char_traits@D@std@@V?$allocator@D@2@@std@@@2@@std@@QAEX$$QAV?$basic_string@DU?$char_traits@D@std@@V?$allocator@D@2@@2@@Z 0040c100 f i generator.obj
 0001:0000b1d0       ??1?$vector@V?$basic_string@DU?$char_traits@D@std@@V?$allocator@D@2@@std@@V?$allocator@V?$basic_string@DU?$char_traits@D@std@@V?$allocator@D@2@@std@@@2@@std@@QAE@XZ 0040c1d0 f i generator.obj
 0001:0000b210       ?clear@?$vector@V?$basic_string@DU?$char_traits@D@std@@V?$allocator@D@2@@std@@V?$allocator@V?$basic_string@DU?$char_traits@D@std@@V?$allocator@D@2@@std@@@2@@std@@QAEXXZ 0040c210 f i generator.obj
 0001:0000b240       ?_Reserve@?$vector@V?$basic_string@DU?$char_traits@D@std@@V?$allocator@D@2@@std@@V?$allocator@V?$basic_string@DU?$char_traits@D@std@@V?$allocator@D@2@@std@@@2@@std@@IAEXI@Z 0040c240 f i generator.obj
 0001:0000b2c0       ?reserve@?$vector@V?$basic_string@DU?$char_traits@D@std@@V?$allocator@D@2@@std@@V?$allocator@V?$basic_string@DU?$char_traits@D@std@@V?$allocator@D@2@@std@@@2@@std@@QAEXI@Z 0040c2c0 f i generator.obj
 0001:0000b3d0       ?_Destroy@?$vector@V?$basic_string@DU?$char_traits@D@std@@V?$allocator@D@2@@std@@V?$allocator@V?$basic_string@DU?$char_traits@D@std@@V?$allocator@D@2@@std@@@2@@std@@IAEXPAV?$basic_string@DU?$char_traits@D@std@@V?$allocator@D@2@@2@0@Z 0040c3d0 f i generator.obj
 0001:0000b410       ?allocate@?$allocator@V?$basic_string@DU?$char_traits@D@std@@V?$allocator@D@2@@std@@@std@@QAEPAV?$basic_string@DU?$char_traits@D@std@@V?$allocator@D@2@@2@I@Z 0040c410 f i generator.obj
 0001:0000b470       ??$_Move@PAV?$basic_string@DU?$char_traits@D@std@@V?$allocator@D@2@@std@@PAV12@@std@@YAPAV?$basic_string@DU?$char_traits@D@std@@V?$allocator@D@2@@0@PAV10@00U_Nonscalar_ptr_iterator_tag@0@@Z 0040c470 f i generator.obj
 0001:0000b4f0       ??$_Uninit_move@PAV?$basic_string@DU?$char_traits@D@std@@V?$allocator@D@2@@std@@PAV12@V?$allocator@V?$basic_string@DU?$char_traits@D@std@@V?$allocator@D@2@@std@@@2@V12@@std@@YAPAV?$basic_string@DU?$char_traits@D@std@@V?$allocator@D@2@@0@PAV10@00AAV?$allocator@V?$basic_string@DU?$char_traits@D@std@@V?$allocator@D@2@@std@@@0@0U_Nonscalar_ptr_iterator_tag@0@@Z 0040c4f0 f i generator.obj
 0001:0000b5b0       ?doResetLog@rcContext@@MAEXXZ 0040c5b0 f i MapBuilder.obj
 0001:0000b5b0       ?doResetTimers@rcContext@@MAEXXZ 0040c5b0 f i MapBuilder.obj
 0001:0000b5b0       ??3@YAXPAX0@Z              0040c5b0 f i BIH.obj
 0001:0000b5c0       ?doLog@rcContext@@MAEXW4rcLogCategory@@PBDH@Z 0040c5c0 f i MapBuilder.obj
 0001:0000b5d0       ?doStartTimer@rcContext@@MAEXW4rcTimerLabel@@@Z 0040c5d0 f i MapBuilder.obj
 0001:0000b5d0       ?doStopTimer@rcContext@@MAEXW4rcTimerLabel@@@Z 0040c5d0 f i MapBuilder.obj
 0001:0000b5e0       ?doGetAccumulatedTime@rcContext@@MBEHW4rcTimerLabel@@@Z 0040c5e0 f i MapBuilder.obj
 0001:0000b5f0       ??_ErcContext@@UAEPAXI@Z   0040c5f0 f i  CIL library: CIL module
 0001:0000b5f0       ??_GrcContext@@UAEPAXI@Z   0040c5f0 f i MapBuilder.obj
 0001:0000b620       ?rcVmin@@YAXPAMPBM@Z       0040c620 f i MapBuilder.obj
 0001:0000b6b0       ?rcVmax@@YAXPAMPBM@Z       0040c6b0 f i MapBuilder.obj
 0001:0000b740       ??1IntermediateValues@MMAP@@QAE@XZ 0040c740 f i MapBuilder.obj
 0001:0000b800       ?writeIV@IntermediateValues@MMAP@@QAEXIII@Z 0040c800 f i MapBuilder.obj
 0001:0000bd60       ?debugWrite@IntermediateValues@MMAP@@QAEXPAU_iobuf@@PBUrcHeightfield@@@Z 0040cd60 f i MapBuilder.obj
 0001:0000be60       ?debugWrite@IntermediateValues@MMAP@@QAEXPAU_iobuf@@PBUrcCompactHeightfield@@@Z 0040ce60 f i MapBuilder.obj
 0001:0000bfa0       ?debugWrite@IntermediateValues@MMAP@@QAEXPAU_iobuf@@PBUrcContourSet@@@Z 0040cfa0 f i MapBuilder.obj
 0001:0000c0a0       ?debugWrite@IntermediateValues@MMAP@@QAEXPAU_iobuf@@PBUrcPolyMesh@@@Z 0040d0a0 f i MapBuilder.obj
 0001:0000c150       ??0Tile@MMAP@@QAE@XZ       0040d150 f i MapBuilder.obj
 0001:0000c170       ??1Tile@MMAP@@QAE@XZ       0040d170 f i MapBuilder.obj
 0001:0000c230       ??0MapBuilder@MMAP@@QAE@M_N00000@Z 0040d230 f   MapBuilder.obj
 0001:0000c390       ??1MapBuilder@MMAP@@QAE@XZ 0040d390 f   MapBuilder.obj
 0001:0000c580       ?discoverTiles@MapBuilder@MMAP@@AAEXXZ 0040d580 f   MapBuilder.obj
 0001:0000ce10       ?getTileList@MapBuilder@MMAP@@AAEPAV?$set@IU?$less@I@std@@V?$allocator@I@2@@std@@I@Z 0040de10 f   MapBuilder.obj
 0001:0000cf20       ?buildAll@MapBuilder@MMAP@@QAEXXZ 0040df20 f   MapBuilder.obj
 0001:0000cfa0       ?build@MapBuilder@MMAP@@QAEXI@Z 0040dfa0 f   MapBuilder.obj
 0001:0000d780       ??1MeshData@MMAP@@QAE@XZ   0040e780 f i MapBuilder.obj
 0001:0000d970       ??0MeshData@MMAP@@QAE@ABU01@@Z 0040e970 f i MapBuilder.obj
 0001:0000da40       ?buildTile@MapBuilder@MMAP@@QAEXIII@Z 0040ea40 f   MapBuilder.obj
 0001:0000e000       ?loadVMap@MapBuilder@MMAP@@AAE_NIIIAAUMeshData@2@@Z 0040f000 f   MapBuilder.obj
 0001:0000f590       ?transform@MapBuilder@MMAP@@AAEXV?$vector@VVector3@G3D@@V?$allocator@VVector3@G3D@@@std@@@std@@AAV34@MVMatrix3@G3D@@VVector3@6@@Z 00410590 f   MapBuilder.obj
 0001:0000f6b0       ?copyVertices@MapBuilder@MMAP@@AAEXV?$vector@VVector3@G3D@@V?$allocator@VVector3@G3D@@@std@@@std@@AAV?$Array@M$09$0CA@@G3D@@@Z 004106b0 f   MapBuilder.obj
 0001:0000f820       ?copyIndices@MapBuilder@MMAP@@AAEXV?$vector@VMeshTriangle@VMAP@@V?$allocator@VMeshTriangle@VMAP@@@std@@@std@@AAV?$Array@H$09$0CA@@G3D@@H_N@Z 00410820 f   MapBuilder.obj
 0001:0000faa0       ?copyIndices@MapBuilder@MMAP@@AAEXAAV?$Array@H$09$0CA@@G3D@@V34@H@Z 00410aa0 f   MapBuilder.obj
 0001:0000fba0       ?cleanVertices@MapBuilder@MMAP@@AAEXAAV?$Array@M$09$0CA@@G3D@@AAV?$Array@H$09$0CA@@4@@Z 00410ba0 f   MapBuilder.obj
 0001:0000fed0       ??1?$map@HHU?$less@H@std@@V?$allocator@U?$pair@$$CBHH@std@@@2@@std@@QAE@XZ 00410ed0 f i MapBuilder.obj
 0001:0000fed0       ??1?$map@IPAV?$set@IU?$less@I@std@@V?$allocator@I@2@@std@@U?$less@I@2@V?$allocator@U?$pair@$$CBIPAV?$set@IU?$less@I@std@@V?$allocator@I@2@@std@@@std@@@2@@std@@QAE@XZ 00410ed0 f i MapBuilder.obj
 0001:0000ff30       ?buildNavMesh@MapBuilder@MMAP@@AAEXIAAPAVdtNavMesh@@@Z 00410f30 f   MapBuilder.obj
 0001:000101c0       ?buildMoveMapTile@MapBuilder@MMAP@@AAEXIIIUMeshData@2@QAM1PAVdtNavMesh@@@Z 004111c0 f   MapBuilder.obj
 0001:00011130       ?getTileBounds@MapBuilder@MMAP@@AAEXIIPAMH00@Z 00412130 f   MapBuilder.obj
 0001:000111a0       ?generateObjFile@MapBuilder@MMAP@@AAEXIIIUMeshData@2@@Z 004121a0 f   MapBuilder.obj
 0001:000114c0       ?generateRealObj@MapBuilder@MMAP@@AAEXIIIUMeshData@2@@Z 004124c0 f   MapBuilder.obj
 0001:000117f0       ?shouldSkipMap@MapBuilder@MMAP@@AAE_NI@Z 004127f0 f   MapBuilder.obj
 0001:00011a10       ?shouldSkipTile@MapBuilder@MMAP@@AAE_NIII@Z 00412a10 f   MapBuilder.obj
 0001:00011af0       ??1?$Array@M$09$0CA@@G3D@@QAE@XZ 00412af0 f i MapBuilder.obj
 0001:00011af0       ??1?$Array@H$09$0CA@@G3D@@QAE@XZ 00412af0 f i MapBuilder.obj
 0001:00011b80       ?append@?$Array@M$09$0CA@@G3D@@QAEXABM00@Z 00412b80 f i MapBuilder.obj
 0001:00011c80       ?append@?$Array@M$09$0CA@@G3D@@QAEXABV12@@Z 00412c80 f i MapBuilder.obj
 0001:00011d20       ??0?$Array@E$09$0CA@@G3D@@QAE@XZ 00412d20 f i MapBuilder.obj
 0001:00011d20       ??0?$Array@M$09$0CA@@G3D@@QAE@XZ 00412d20 f i MapBuilder.obj
 0001:00011d20       ??0?$Array@H$09$0CA@@G3D@@QAE@XZ 00412d20 f i MapBuilder.obj
 0001:00011e00       ?append@?$Array@H$09$0CA@@G3D@@QAEXABH@Z 00412e00 f i MapBuilder.obj
 0001:00011e70       ?append@?$Array@H$09$0CA@@G3D@@QAEXABH00@Z 00412e70 f i MapBuilder.obj
 0001:00011f70       ?append@?$Array@E$09$0CA@@G3D@@QAEXABE@Z 00412f70 f i MapBuilder.obj
 0001:00011fe0       ?push_back@?$vector@VVector3@G3D@@V?$allocator@VVector3@G3D@@@std@@@std@@QAEXABVVector3@G3D@@@Z 00412fe0 f i MapBuilder.obj
 0001:00012070       ?find@?$_Tree@V?$_Tmap_traits@IPAV?$set@IU?$less@I@std@@V?$allocator@I@2@@std@@U?$less@I@2@V?$allocator@U?$pair@$$CBIPAV?$set@IU?$less@I@std@@V?$allocator@I@2@@std@@@std@@@2@$0A@@std@@@std@@QAE?AV?$_Tree_iterator@V?$_Tree_val@V?$_Tmap_traits@IPAV?$set@IU?$less@I@std@@V?$allocator@I@2@@std@@U?$less@I@2@V?$allocator@U?$pair@$$CBIPAV?$set@IU?$less@I@std@@V?$allocator@I@2@@std@@@std@@@2@$0A@@std@@@std@@@2@ABI@Z 00413070 f i MapBuilder.obj
 0001:000120d0       ?clear@?$_Tree@V?$_Tset_traits@IU?$less@I@std@@V?$allocator@I@2@$0A@@std@@@std@@QAEXXZ 004130d0 f i MapBuilder.obj
 0001:00012120       ?clear@?$_Tree@V?$_Tmap_traits@IPAV?$set@IU?$less@I@std@@V?$allocator@I@2@@std@@U?$less@I@2@V?$allocator@U?$pair@$$CBIPAV?$set@IU?$less@I@std@@V?$allocator@I@2@@std@@@std@@@2@$0A@@std@@@std@@QAEXXZ 00413120 f i MapBuilder.obj
 0001:00012120       ?clear@?$_Tree@V?$_Tmap_traits@HHU?$less@H@std@@V?$allocator@U?$pair@$$CBHH@std@@@2@$0A@@std@@@std@@QAEXXZ 00413120 f i MapBuilder.obj
 0001:00012170       ?find@?$basic_string@DU?$char_traits@D@std@@V?$allocator@D@2@@std@@QBEIPBDII@Z 00413170 f i MapBuilder.obj
 0001:00012220       ?init@?$Array@M$09$0CA@@G3D@@AAEXHABV?$ReferenceCountedPointer@VMemoryManager@G3D@@@2@@Z 00413220 f i MapBuilder.obj
 0001:000122a0       ?_copy@?$Array@M$09$0CA@@G3D@@AAEXABV12@@Z 004132a0 f i MapBuilder.obj
 0001:00012350       ?resize@?$Array@M$09$0CA@@G3D@@QAEXH_N@Z 00413350 f i MapBuilder.obj
 0001:00012430       ?init@?$Array@H$09$0CA@@G3D@@AAEXHABV?$ReferenceCountedPointer@VMemoryManager@G3D@@@2@@Z 00413430 f i MapBuilder.obj
 0001:000124b0       ?_copy@?$Array@H$09$0CA@@G3D@@AAEXABV12@@Z 004134b0 f i MapBuilder.obj
 0001:00012560       ?resize@?$Array@H$09$0CA@@G3D@@QAEXH_N@Z 00413560 f i MapBuilder.obj
 0001:00012640       ?init@?$Array@E$09$0CA@@G3D@@AAEXHABV?$ReferenceCountedPointer@VMemoryManager@G3D@@@2@@Z 00413640 f i MapBuilder.obj
 0001:000126c0       ?_copy@?$Array@E$09$0CA@@G3D@@AAEXABV12@@Z 004136c0 f i MapBuilder.obj
 0001:00012770       ?resize@?$Array@E$09$0CA@@G3D@@QAEXH_N@Z 00413770 f i MapBuilder.obj
 0001:00012850       ?_Erase@?$_Tree@V?$_Tset_traits@IU?$less@I@std@@V?$allocator@I@2@$0A@@std@@@std@@IAEXPAU_Node@?$_Tree_nod@V?$_Tset_traits@IU?$less@I@std@@V?$allocator@I@2@$0A@@std@@@2@@Z 00413850 f i MapBuilder.obj
 0001:00012890       ??1?$_Tree_val@V?$_Tmap_traits@IPAV?$set@IU?$less@I@std@@V?$allocator@I@2@@std@@U?$less@I@2@V?$allocator@U?$pair@$$CBIPAV?$set@IU?$less@I@std@@V?$allocator@I@2@@std@@@std@@@2@$0A@@std@@@std@@QAE@XZ 00413890 f i MapBuilder.obj
 0001:00012890       ??1?$_Tree_val@V?$_Tset_traits@IU?$less@I@std@@V?$allocator@I@2@$0A@@std@@@std@@QAE@XZ 00413890 f i MapBuilder.obj
 0001:00012890       ??1?$_Tree_val@V?$_Tmap_traits@HHU?$less@H@std@@V?$allocator@U?$pair@$$CBHH@std@@@2@$0A@@std@@@std@@QAE@XZ 00413890 f i MapBuilder.obj
 0001:000128a0       ??E?$_Tree_unchecked_const_iterator@V?$_Tree_val@V?$_Tset_traits@IU?$less@I@std@@V?$allocator@I@2@$0A@@std@@@std@@U_Iterator_base0@2@@std@@QAEAAV01@XZ 004138a0 f i MapBuilder.obj
 0001:000128f0       ?_Erase@?$_Tree@V?$_Tmap_traits@IPAV?$set@IU?$less@I@std@@V?$allocator@I@2@@std@@U?$less@I@2@V?$allocator@U?$pair@$$CBIPAV?$set@IU?$less@I@std@@V?$allocator@I@2@@std@@@std@@@2@$0A@@std@@@std@@IAEXPAU_Node@?$_Tree_nod@V?$_Tmap_traits@IPAV?$set@IU?$less@I@std@@V?$allocator@I@2@@std@@U?$less@I@2@V?$allocator@U?$pair@$$CBIPAV?$set@IU?$less@I@std@@V?$allocator@I@2@@std@@@std@@@2@$0A@@std@@@2@@Z 004138f0 f i MapBuilder.obj
 0001:000128f0       ?_Erase@?$_Tree@V?$_Tmap_traits@HHU?$less@H@std@@V?$allocator@U?$pair@$$CBHH@std@@@2@$0A@@std@@@std@@IAEXPAU_Node@?$_Tree_nod@V?$_Tmap_traits@HHU?$less@H@std@@V?$allocator@U?$pair@$$CBHH@std@@@2@$0A@@std@@@2@@Z 004138f0 f i MapBuilder.obj
 0001:00012930       ?realloc@?$Array@M$09$0CA@@G3D@@AAEXH@Z 00413930 f i MapBuilder.obj
 0001:00012ad0       ?append@?$Array@M$09$0CA@@G3D@@QAEXABM@Z 00413ad0 f i MapBuilder.obj
 0001:00012b40       ?realloc@?$Array@H$09$0CA@@G3D@@AAEXH@Z 00413b40 f i MapBuilder.obj
 0001:00012c90       ?realloc@?$Array@E$09$0CA@@G3D@@AAEXH@Z 00413c90 f i MapBuilder.obj
 0001:00012de0       ?erase@?$_Tree@V?$_Tset_traits@IU?$less@I@std@@V?$allocator@I@2@$0A@@std@@@std@@QAE?AV?$_Tree_const_iterator@V?$_Tree_val@V?$_Tset_traits@IU?$less@I@std@@V?$allocator@I@2@$0A@@std@@@std@@@2@V32@0@Z 00413de0 f i MapBuilder.obj
 0001:00012e80       ?reserve@?$vector@IV?$allocator@I@std@@@std@@QAEXI@Z 00413e80 f i BIH.obj
 0001:00012e80       ?reserve@?$vector@HV?$allocator@H@std@@@std@@QAEXI@Z 00413e80 f i MapBuilder.obj
 0001:00012f00       ?erase@?$_Tree@V?$_Tmap_traits@IPAV?$set@IU?$less@I@std@@V?$allocator@I@2@@std@@U?$less@I@2@V?$allocator@U?$pair@$$CBIPAV?$set@IU?$less@I@std@@V?$allocator@I@2@@std@@@std@@@2@$0A@@std@@@std@@QAE?AV?$_Tree_iterator@V?$_Tree_val@V?$_Tmap_traits@IPAV?$set@IU?$less@I@std@@V?$allocator@I@2@@std@@U?$less@I@2@V?$allocator@U?$pair@$$CBIPAV?$set@IU?$less@I@std@@V?$allocator@I@2@@std@@@std@@@2@$0A@@std@@@std@@@2@V?$_Tree_const_iterator@V?$_Tree_val@V?$_Tmap_traits@IPAV?$set@IU?$less@I@std@@V?$allocator@I@2@@std@@U?$less@I@2@V?$allocator@U?$pair@$$CBIPAV?$set@IU?$less@I@std@@V?$allocator@I@2@@std@@@std@@@2@$0A@@std@@@std@@@2@0@Z 00413f00 f i MapBuilder.obj
 0001:00012f00       ?erase@?$_Tree@V?$_Tmap_traits@HHU?$less@H@std@@V?$allocator@U?$pair@$$CBHH@std@@@2@$0A@@std@@@std@@QAE?AV?$_Tree_iterator@V?$_Tree_val@V?$_Tmap_traits@HHU?$less@H@std@@V?$allocator@U?$pair@$$CBHH@std@@@2@$0A@@std@@@std@@@2@V?$_Tree_const_iterator@V?$_Tree_val@V?$_Tmap_traits@HHU?$less@H@std@@V?$allocator@U?$pair@$$CBHH@std@@@2@$0A@@std@@@std@@@2@0@Z 00413f00 f i MapBuilder.obj
 0001:00012fa0       ??E?$_Tree_unchecked_const_iterator@V?$_Tree_val@V?$_Tmap_traits@IPAV?$set@IU?$less@I@std@@V?$allocator@I@2@@std@@U?$less@I@2@V?$allocator@U?$pair@$$CBIPAV?$set@IU?$less@I@std@@V?$allocator@I@2@@std@@@std@@@2@$0A@@std@@@std@@U_Iterator_base0@2@@std@@QAEAAV01@XZ 00413fa0 f i MapBuilder.obj
 0001:00012fa0       ??E?$_Tree_unchecked_const_iterator@V?$_Tree_val@V?$_Tmap_traits@HHU?$less@H@std@@V?$allocator@U?$pair@$$CBHH@std@@@2@$0A@@std@@@std@@U_Iterator_base0@2@@std@@QAEAAV01@XZ 00413fa0 f i MapBuilder.obj
 0001:00012ff0       ?erase@?$_Tree@V?$_Tset_traits@IU?$less@I@std@@V?$allocator@I@2@$0A@@std@@@std@@QAE?AV?$_Tree_const_iterator@V?$_Tree_val@V?$_Tset_traits@IU?$less@I@std@@V?$allocator@I@2@$0A@@std@@@std@@@2@V32@@Z 00413ff0 f i MapBuilder.obj
 0001:00013250       ?erase@?$_Tree@V?$_Tmap_traits@HHU?$less@H@std@@V?$allocator@U?$pair@$$CBHH@std@@@2@$0A@@std@@@std@@QAE?AV?$_Tree_iterator@V?$_Tree_val@V?$_Tmap_traits@HHU?$less@H@std@@V?$allocator@U?$pair@$$CBHH@std@@@2@$0A@@std@@@std@@@2@V?$_Tree_const_iterator@V?$_Tree_val@V?$_Tmap_traits@HHU?$less@H@std@@V?$allocator@U?$pair@$$CBHH@std@@@2@$0A@@std@@@std@@@2@@Z 00414250 f i MapBuilder.obj
 0001:00013250       ?erase@?$_Tree@V?$_Tmap_traits@IPAV?$set@IU?$less@I@std@@V?$allocator@I@2@@std@@U?$less@I@2@V?$allocator@U?$pair@$$CBIPAV?$set@IU?$less@I@std@@V?$allocator@I@2@@std@@@std@@@2@$0A@@std@@@std@@QAE?AV?$_Tree_iterator@V?$_Tree_val@V?$_Tmap_traits@IPAV?$set@IU?$less@I@std@@V?$allocator@I@2@@std@@U?$less@I@2@V?$allocator@U?$pair@$$CBIPAV?$set@IU?$less@I@std@@V?$allocator@I@2@@std@@@std@@@2@$0A@@std@@@std@@@2@V?$_Tree_const_iterator@V?$_Tree_val@V?$_Tmap_traits@IPAV?$set@IU?$less@I@std@@V?$allocator@I@2@@std@@U?$less@I@2@V?$allocator@U?$pair@$$CBIPAV?$set@IU?$less@I@std@@V?$allocator@I@2@@std@@@std@@@2@$0A@@std@@@std@@@2@@Z 00414250 f i MapBuilder.obj
 0001:000134b0       ?_Lrotate@?$_Tree@V?$_Tmap_traits@HHU?$less@H@std@@V?$allocator@U?$pair@$$CBHH@std@@@2@$0A@@std@@@std@@IAEXPAU_Node@?$_Tree_nod@V?$_Tmap_traits@HHU?$less@H@std@@V?$allocator@U?$pair@$$CBHH@std@@@2@$0A@@std@@@2@@Z 004144b0 f i MapBuilder.obj
 0001:000134b0       ?_Lrotate@?$_Tree@V?$_Tmap_traits@IPAV?$set@IU?$less@I@std@@V?$allocator@I@2@@std@@U?$less@I@2@V?$allocator@U?$pair@$$CBIPAV?$set@IU?$less@I@std@@V?$allocator@I@2@@std@@@std@@@2@$0A@@std@@@std@@IAEXPAU_Node@?$_Tree_nod@V?$_Tmap_traits@IPAV?$set@IU?$less@I@std@@V?$allocator@I@2@@std@@U?$less@I@2@V?$allocator@U?$pair@$$CBIPAV?$set@IU?$less@I@std@@V?$allocator@I@2@@std@@@std@@@2@$0A@@std@@@2@@Z 004144b0 f i MapBuilder.obj
 0001:00013510       ?_Rrotate@?$_Tree@V?$_Tmap_traits@HHU?$less@H@std@@V?$allocator@U?$pair@$$CBHH@std@@@2@$0A@@std@@@std@@IAEXPAU_Node@?$_Tree_nod@V?$_Tmap_traits@HHU?$less@H@std@@V?$allocator@U?$pair@$$CBHH@std@@@2@$0A@@std@@@2@@Z 00414510 f i MapBuilder.obj
 0001:00013510       ?_Rrotate@?$_Tree@V?$_Tmap_traits@IPAV?$set@IU?$less@I@std@@V?$allocator@I@2@@std@@U?$less@I@2@V?$allocator@U?$pair@$$CBIPAV?$set@IU?$less@I@std@@V?$allocator@I@2@@std@@@std@@@2@$0A@@std@@@std@@IAEXPAU_Node@?$_Tree_nod@V?$_Tmap_traits@IPAV?$set@IU?$less@I@std@@V?$allocator@I@2@@std@@U?$less@I@2@V?$allocator@U?$pair@$$CBIPAV?$set@IU?$less@I@std@@V?$allocator@I@2@@std@@@std@@@2@$0A@@std@@@2@@Z 00414510 f i MapBuilder.obj
 0001:00013570       ?_Max@?$_Tree_val@V?$_Tmap_traits@IPAV?$set@IU?$less@I@std@@V?$allocator@I@2@@std@@U?$less@I@2@V?$allocator@U?$pair@$$CBIPAV?$set@IU?$less@I@std@@V?$allocator@I@2@@std@@@std@@@2@$0A@@std@@@std@@SAPAU_Node@?$_Tree_nod@V?$_Tmap_traits@IPAV?$set@IU?$less@I@std@@V?$allocator@I@2@@std@@U?$less@I@2@V?$allocator@U?$pair@$$CBIPAV?$set@IU?$less@I@std@@V?$allocator@I@2@@std@@@std@@@2@$0A@@std@@@2@PAU342@@Z 00414570 f i MapBuilder.obj
 0001:00013570       ?_Max@?$_Tree_val@V?$_Tmap_traits@HHU?$less@H@std@@V?$allocator@U?$pair@$$CBHH@std@@@2@$0A@@std@@@std@@SAPAU_Node@?$_Tree_nod@V?$_Tmap_traits@HHU?$less@H@std@@V?$allocator@U?$pair@$$CBHH@std@@@2@$0A@@std@@@2@PAU342@@Z 00414570 f i MapBuilder.obj
 0001:00013590       ?_Lrotate@?$_Tree@V?$_Tset_traits@IU?$less@I@std@@V?$allocator@I@2@$0A@@std@@@std@@IAEXPAU_Node@?$_Tree_nod@V?$_Tset_traits@IU?$less@I@std@@V?$allocator@I@2@$0A@@std@@@2@@Z 00414590 f i MapBuilder.obj
 0001:000135f0       ?_Rrotate@?$_Tree@V?$_Tset_traits@IU?$less@I@std@@V?$allocator@I@2@$0A@@std@@@std@@IAEXPAU_Node@?$_Tree_nod@V?$_Tset_traits@IU?$less@I@std@@V?$allocator@I@2@$0A@@std@@@2@@Z 004145f0 f i MapBuilder.obj
 0001:00013650       ?_Max@?$_Tree_val@V?$_Tset_traits@IU?$less@I@std@@V?$allocator@I@2@$0A@@std@@@std@@SAPAU_Node@?$_Tree_nod@V?$_Tset_traits@IU?$less@I@std@@V?$allocator@I@2@$0A@@std@@@2@PAU342@@Z 00414650 f i MapBuilder.obj
 0001:00013670       ?_Linsert@?$_Tree@V?$_Tmap_traits@IPAV?$set@IU?$less@I@std@@V?$allocator@I@2@@std@@U?$less@I@2@V?$allocator@U?$pair@$$CBIPAV?$set@IU?$less@I@std@@V?$allocator@I@2@@std@@@std@@@2@$0A@@std@@@std@@QAE?AU?$pair@V?$_Tree_iterator@V?$_Tree_val@V?$_Tmap_traits@IPAV?$set@IU?$less@I@std@@V?$allocator@I@2@@std@@U?$less@I@2@V?$allocator@U?$pair@$$CBIPAV?$set@IU?$less@I@std@@V?$allocator@I@2@@std@@@std@@@2@$0A@@std@@@std@@@std@@_N@2@PAU_Node@?$_Tree_nod@V?$_Tmap_traits@IPAV?$set@IU?$less@I@std@@V?$allocator@I@2@@std@@U?$less@I@2@V?$allocator@U?$pair@$$CBIPAV?$set@IU?$less@I@std@@V?$allocator@I@2@@std@@@std@@@2@$0A@@std@@@2@_N@Z 00414670 f i MapBuilder.obj
 0001:00013740       ?_Linsert@?$_Tree@V?$_Tset_traits@IU?$less@I@std@@V?$allocator@I@2@$0A@@std@@@std@@QAE?AU?$pair@V?$_Tree_const_iterator@V?$_Tree_val@V?$_Tset_traits@IU?$less@I@std@@V?$allocator@I@2@$0A@@std@@@std@@@std@@_N@2@PAU_Node@?$_Tree_nod@V?$_Tset_traits@IU?$less@I@std@@V?$allocator@I@2@$0A@@std@@@2@_N@Z 00414740 f i MapBuilder.obj
 0001:00013810       ?_Linsert@?$_Tree@V?$_Tmap_traits@HHU?$less@H@std@@V?$allocator@U?$pair@$$CBHH@std@@@2@$0A@@std@@@std@@QAE?AU?$pair@V?$_Tree_iterator@V?$_Tree_val@V?$_Tmap_traits@HHU?$less@H@std@@V?$allocator@U?$pair@$$CBHH@std@@@2@$0A@@std@@@std@@@std@@_N@2@PAU_Node@?$_Tree_nod@V?$_Tmap_traits@HHU?$less@H@std@@V?$allocator@U?$pair@$$CBHH@std@@@2@$0A@@std@@@2@_N@Z 00414810 f i MapBuilder.obj
 0001:000138e0       ?_Insert@?$_Tree@V?$_Tset_traits@IU?$less@I@std@@V?$allocator@I@2@$0A@@std@@@std@@IAE?AV?$_Tree_const_iterator@V?$_Tree_val@V?$_Tset_traits@IU?$less@I@std@@V?$allocator@I@2@$0A@@std@@@std@@@2@_NPAU_Node@?$_Tree_nod@V?$_Tset_traits@IU?$less@I@std@@V?$allocator@I@2@$0A@@std@@@2@1@Z 004148e0 f i MapBuilder.obj
 0001:00013b00       ?_Insert@?$_Tree@V?$_Tmap_traits@HHU?$less@H@std@@V?$allocator@U?$pair@$$CBHH@std@@@2@$0A@@std@@@std@@IAE?AV?$_Tree_iterator@V?$_Tree_val@V?$_Tmap_traits@HHU?$less@H@std@@V?$allocator@U?$pair@$$CBHH@std@@@2@$0A@@std@@@std@@@2@_NPAU_Node@?$_Tree_nod@V?$_Tmap_traits@HHU?$less@H@std@@V?$allocator@U?$pair@$$CBHH@std@@@2@$0A@@std@@@2@1@Z 00414b00 f i MapBuilder.obj
 0001:00013b00       ?_Insert@?$_Tree@V?$_Tmap_traits@IPAV?$set@IU?$less@I@std@@V?$allocator@I@2@@std@@U?$less@I@2@V?$allocator@U?$pair@$$CBIPAV?$set@IU?$less@I@std@@V?$allocator@I@2@@std@@@std@@@2@$0A@@std@@@std@@IAE?AV?$_Tree_iterator@V?$_Tree_val@V?$_Tmap_traits@IPAV?$set@IU?$less@I@std@@V?$allocator@I@2@@std@@U?$less@I@2@V?$allocator@U?$pair@$$CBIPAV?$set@IU?$less@I@std@@V?$allocator@I@2@@std@@@std@@@2@$0A@@std@@@std@@@2@_NPAU_Node@?$_Tree_nod@V?$_Tmap_traits@IPAV?$set@IU?$less@I@std@@V?$allocator@I@2@@std@@U?$less@I@2@V?$allocator@U?$pair@$$CBIPAV?$set@IU?$less@I@std@@V?$allocator@I@2@@std@@@std@@@2@$0A@@std@@@2@1@Z 00414b00 f i MapBuilder.obj
 0001:00013d20       ??F?$_Tree_unchecked_const_iterator@V?$_Tree_val@V?$_Tset_traits@IU?$less@I@std@@V?$allocator@I@2@$0A@@std@@@std@@U_Iterator_base0@2@@std@@QAEAAV01@XZ 00414d20 f i MapBuilder.obj
 0001:00013d80       ??F?$_Tree_unchecked_const_iterator@V?$_Tree_val@V?$_Tmap_traits@HHU?$less@H@std@@V?$allocator@U?$pair@$$CBHH@std@@@2@$0A@@std@@@std@@U_Iterator_base0@2@@std@@QAEAAV01@XZ 00414d80 f i MapBuilder.obj
 0001:00013d80       ??F?$_Tree_unchecked_const_iterator@V?$_Tree_val@V?$_Tmap_traits@IPAV?$set@IU?$less@I@std@@V?$allocator@I@2@@std@@U?$less@I@2@V?$allocator@U?$pair@$$CBIPAV?$set@IU?$less@I@std@@V?$allocator@I@2@@std@@@std@@@2@$0A@@std@@@std@@U_Iterator_base0@2@@std@@QAEAAV01@XZ 00414d80 f i MapBuilder.obj
 0001:00013de0       ??$_Buynode@I@?$_Tree_val@V?$_Tset_traits@IU?$less@I@std@@V?$allocator@I@2@$0A@@std@@@std@@QAEPAU_Node@?$_Tree_nod@V?$_Tset_traits@IU?$less@I@std@@V?$allocator@I@2@$0A@@std@@@1@$$QAI@Z 00414de0 f i MapBuilder.obj
 0001:00013de0       ??$_Buynode@AAI@?$_Tree_val@V?$_Tset_traits@IU?$less@I@std@@V?$allocator@I@2@$0A@@std@@@std@@QAEPAU_Node@?$_Tree_nod@V?$_Tset_traits@IU?$less@I@std@@V?$allocator@I@2@$0A@@std@@@1@AAI@Z 00414de0 f i MapBuilder.obj
 0001:00013e50       ??$_Buynode@U?$pair@IPAV?$set@IU?$less@I@std@@V?$allocator@I@2@@std@@@std@@@?$_Tree_val@V?$_Tmap_traits@IPAV?$set@IU?$less@I@std@@V?$allocator@I@2@@std@@U?$less@I@2@V?$allocator@U?$pair@$$CBIPAV?$set@IU?$less@I@std@@V?$allocator@I@2@@std@@@std@@@2@$0A@@std@@@std@@QAEPAU_Node@?$_Tree_nod@V?$_Tmap_traits@IPAV?$set@IU?$less@I@std@@V?$allocator@I@2@@std@@U?$less@I@2@V?$allocator@U?$pair@$$CBIPAV?$set@IU?$less@I@std@@V?$allocator@I@2@@std@@@std@@@2@$0A@@std@@@1@$$QAU?$pair@IPAV?$set@IU?$less@I@std@@V?$allocator@I@2@@std@@@1@@Z 00414e50 f i MapBuilder.obj
 0001:00013e50       ??$_Buynode@U?$pair@HH@std@@@?$_Tree_val@V?$_Tmap_traits@HHU?$less@H@std@@V?$allocator@U?$pair@$$CBHH@std@@@2@$0A@@std@@@std@@QAEPAU_Node@?$_Tree_nod@V?$_Tmap_traits@HHU?$less@H@std@@V?$allocator@U?$pair@$$CBHH@std@@@2@$0A@@std@@@1@$$QAU?$pair@HH@1@@Z 00414e50 f i MapBuilder.obj
 0001:00013ec0       ?loadMap@TerrainBuilder@MMAP@@AAE_NIIIAAUMeshData@2@W4Spot@2@@Z 00414ec0 f   TerrainBuilder.obj
 0001:00015be0       ??4?$vector@VGroupModel@VMAP@@V?$allocator@VGroupModel@VMAP@@@std@@@std@@QAEAAV01@ABV01@@Z 00416be0 f i VMapExtensions.obj
 0001:00015d80       ?_Buy@?$vector@VGroupModel@VMAP@@V?$allocator@VGroupModel@VMAP@@@std@@@std@@IAE_NI@Z 00416d80 f i VMapExtensions.obj
 0001:00015dc0       ?_Copy@?$_Hash@V?$_Umap_traits@IPAVStaticMapTree@VMAP@@V?$_Hash_compare@IV?$hash@I@std@@U?$equal_to@I@2@@std@@V?$allocator@U?$pair@$$CBIPAVStaticMapTree@VMAP@@@std@@@4@$0A@@tr1@std@@@std@@IAEXABV12@@Z 00416dc0 f i VMapExtensions.obj
 0001:00015ee0       ??$_Insert@V?$_List_const_iterator@V?$_List_val@U?$pair@$$CBIPAVStaticMapTree@VMAP@@@std@@V?$allocator@U?$pair@$$CBIPAVStaticMapTree@VMAP@@@std@@@2@@std@@@std@@@?$list@U?$pair@$$CBIPAVStaticMapTree@VMAP@@@std@@V?$allocator@U?$pair@$$CBIPAVStaticMapTree@VMAP@@@std@@@2@@std@@QAEXV?$_List_const_iterator@V?$_List_val@U?$pair@$$CBIPAVStaticMapTree@VMAP@@@std@@V?$allocator@U?$pair@$$CBIPAVStaticMapTree@VMAP@@@std@@@2@@std@@@1@00Uforward_iterator_tag@1@@Z 00416ee0 f i VMapExtensions.obj
 0001:00015fb0       ??$_Uninit_move@PAVGroupModel@VMAP@@PAV12@V?$allocator@VGroupModel@VMAP@@@std@@V12@@std@@YAPAVGroupModel@VMAP@@PAV12@00AAV?$allocator@VGroupModel@VMAP@@@0@0U_Nonscalar_ptr_iterator_tag@0@@Z 00416fb0 f i TileAssembler.obj
 0001:00015fb0       ??$_Uninit_copy@PAVGroupModel@VMAP@@PAV12@V?$allocator@VGroupModel@VMAP@@@std@@@std@@YAPAVGroupModel@VMAP@@PAV12@00AAV?$allocator@VGroupModel@VMAP@@@0@U_Nonscalar_ptr_iterator_tag@0@@Z 00416fb0 f i VMapExtensions.obj
 0001:00017950       ?rcBuildContours@@YA_NPAVrcContext@@AAUrcCompactHeightfield@@MHAAUrcContourSet@@H@Z 00418950 f   Recast:RecastContour.obj
 0001:00018200       _cosf                      00419200 f i Recast:Recast.obj
 0001:00018220       ?log@rcContext@@QAAXW4rcLogCategory@@PBDZZ 00419220 f   Recast:Recast.obj
 0001:00018290       ?rcFreeHeightField@@YAXPAUrcHeightfield@@@Z 00419290 f   Recast:Recast.obj
 0001:000182e0       ?rcFreeCompactHeightfield@@YAXPAUrcCompactHeightfield@@@Z 004192e0 f   Recast:Recast.obj
 0001:00018340       ?rcFreeContourSet@@YAXPAUrcContourSet@@@Z 00419340 f   Recast:Recast.obj
 0001:000183a0       ?rcAllocPolyMesh@@YAPAUrcPolyMesh@@XZ 004193a0 f   Recast:Recast.obj
 0001:000183c0       ?rcFreePolyMesh@@YAXPAUrcPolyMesh@@@Z 004193c0 f   Recast:Recast.obj
 0001:00018430       ?rcAllocPolyMeshDetail@@YAPAUrcPolyMeshDetail@@XZ 00419430 f   Recast:Recast.obj
 0001:00018460       ?rcCalcBounds@@YAXPBMHPAM1@Z 00419460 f   Recast:Recast.obj
 0001:000184b0       ?rcClearUnwalkableTriangles@@YAXPAVrcContext@@MPBMHPBHHPAE@Z 004194b0 f   Recast:Recast.obj
 0001:00018600       ?rcGetHeightFieldSpanCount@@YAHPAVrcContext@@AAUrcHeightfield@@@Z 00419600 f   Recast:Recast.obj
 0001:00018670       ?rcBuildCompactHeightfield@@YA_NPAVrcContext@@HHAAUrcHeightfield@@AAUrcCompactHeightfield@@@Z 00419670 f   Recast:Recast.obj
 0001:00018b70       _ceilf                     00419b70 f i Recast:RecastRasterization.obj
 0001:00018ba0       _floorf                    00419ba0 f i Recast:RecastRasterization.obj
 0001:00019620       ?rcRasterizeTriangles@@YAXPAVrcContext@@PBMHPBHPBEHAAUrcHeightfield@@H@Z 0041a620 f   Recast:RecastRasterization.obj
 0001:0001bbd0       ?rcBuildDistanceField@@YA_NPAVrcContext@@AAUrcCompactHeightfield@@@Z 0041cbd0 f   Recast:RecastRegion.obj
 0001:0001bdb0       ?rcBuildRegions@@YA_NPAVrcContext@@AAUrcCompactHeightfield@@HHH@Z 0041cdb0 f   Recast:RecastRegion.obj
 0001:0001f6a0       ?rcBuildPolyMeshDetail@@YA_NPAVrcContext@@ABUrcPolyMesh@@ABUrcCompactHeightfield@@MMAAUrcPolyMeshDetail@@@Z 004206a0 f   Recast:RecastMeshDetail.obj
 0001:00020620       ?rcMergePolyMeshDetails@@YA_NPAVrcContext@@PAPAUrcPolyMeshDetail@@HAAU2@@Z 00421620 f   Recast:RecastMeshDetail.obj
 0001:00020850       ??1rcIntArray@@QAE@XZ      00421850 f i Recast:RecastContour.obj
 0001:00020850       ??1?$rcScopedDelete@G@@QAE@XZ 00421850 f i Recast:RecastRegion.obj
 0001:00020850       ??1?$rcScopedDelete@E@@QAE@XZ 00421850 f i Recast:RecastContour.obj
 0001:00020850       ??1?$rcScopedDelete@H@@QAE@XZ 00421850 f i Recast:RecastMeshDetail.obj
 0001:00020850       ??1rcHeightPatch@@QAE@XZ   00421850 f i Recast:RecastMeshDetail.obj
 0001:00020850       ??1?$rcScopedDelete@M@@QAE@XZ 00421850 f i Recast:RecastMeshDetail.obj
 0001:00020860       ?rcFilterLowHangingWalkableObstacles@@YAXPAVrcContext@@HAAUrcHeightfield@@@Z 00421860 f   Recast:RecastFilter.obj
 0001:00020920       ?rcFilterLedgeSpans@@YAXPAVrcContext@@HHAAUrcHeightfield@@@Z 00421920 f   Recast:RecastFilter.obj
 0001:00020b90       ?rcFilterWalkableLowHeightSpans@@YAXPAVrcContext@@HAAUrcHeightfield@@@Z 00421b90 f   Recast:RecastFilter.obj
 0001:00020fa0       ?left@@YA_NPBH00@Z         00421fa0 f i Recast:RecastMesh.obj
 0001:00020fd0       ?intersectProp@@YA_NPBH000@Z 00421fd0 f   Recast:RecastMesh.obj
 0001:00022a40       ?rcBuildPolyMesh@@YA_NPAVrcContext@@AAUrcContourSet@@HAAUrcPolyMesh@@@Z 00423a40 f   Recast:RecastMesh.obj
 0001:00023620       ?rcMergePolyMeshes@@YA_NPAVrcContext@@PAPAUrcPolyMesh@@HAAU2@@Z 00424620 f   Recast:RecastMesh.obj
 0001:00023ca0       ?rcErodeWalkableArea@@YA_NPAVrcContext@@HAAUrcCompactHeightfield@@@Z 00424ca0 f   Recast:RecastArea.obj
 0001:000241c0       ?resize@rcIntArray@@QAEXH@Z 004251c0 f   Recast:RecastAlloc.obj
 0001:00024229       @__security_check_cookie@4 00425229 f   msvcrt:secchk.obj
 0001:00024238       ?what@exception@std@@UBEPBDXZ 00425238 f   msvcrt:MSVCR100.dll
 0001:0002423e       ??0exception@std@@QAE@ABV01@@Z 0042523e f   msvcrt:MSVCR100.dll
 0001:00024244       ??3@YAXPAX@Z               00425244 f   msvcrt:MSVCR100.dll
 0001:0002424a       ??_Etype_info@@UAEPAXI@Z   0042524a f i msvcrt:ti_inst.obj
 0001:00024296       ??2@YAPAXI@Z               00425296 f   msvcrt:MSVCR100.dll
 0001:0002429c       ?__ArrayUnwind@@YGXPAXIHP6EX0@Z@Z 0042529c f   msvcrt:ehvecdtr.obj
 0001:000242fa       ??_M@YGXPAXIHP6EX0@Z@Z     004252fa f   msvcrt:ehvecdtr.obj
 0001:0002435d       ??_L@YGXPAXIHP6EX0@Z1@Z    0042535d f   msvcrt:ehvecctr.obj
 0001:000243c2       __purecall                 004253c2 f   msvcrt:MSVCR100.dll
 0001:00024656       _mainCRTStartup            00425656 f   msvcrt:crtexe.obj
 0001:00024660       ___report_gsfailure        00425660 f   msvcrt:gs_report.obj
 0001:00024766       ?terminate@@YAXXZ          00425766 f   msvcrt:MSVCR100.dll
 0001:00024770       __SEH_prolog4              00425770 f   msvcrt:sehprolg4.obj
 0001:000247b5       __SEH_epilog4              004257b5 f   msvcrt:sehprolg4.obj
 0001:000247c9       __except_handler4          004257c9 f   msvcrt:chandler4gs.obj
 0001:000247ee       ?__CxxUnhandledExceptionFilter@@YGJPAU_EXCEPTION_POINTERS@@@Z 004257ee f   msvcrt:unhandld.obj
 0001:00024830       ___CxxSetUnhandledExceptionFilter 00425830 f   msvcrt:unhandld.obj
 0001:0002483e       __amsg_exit                0042583e f   msvcrt:MSVCR100.dll
 0001:00024844       __onexit                   00425844 f   msvcrt:atonexit.obj
 0001:000248e5       _atexit                    004258e5 f   msvcrt:atonexit.obj
 0001:000248fc       __RTC_Initialize           004258fc f   msvcrt:_initsect_.obj
 0001:00024922       __RTC_Terminate            00425922 f   msvcrt:_initsect_.obj
 0001:00024948       __XcptFilter               00425948 f   msvcrt:MSVCR100.dll
 0001:00024950       __ValidateImageBase        00425950 f   msvcrt:pesect.obj
 0001:00024990       __FindPESection            00425990 f   msvcrt:pesect.obj
 0001:000249e0       __IsNonwritableInCurrentImage 004259e0 f   msvcrt:pesect.obj
 0001:00024a9c       __initterm                 00425a9c f   msvcrt:MSVCR100.dll
 0001:00024aa2       __initterm_e               00425aa2 f   msvcrt:MSVCR100.dll
 0001:00024aa8       __setdefaultprecision      00425aa8 f   msvcrt:fp8.obj
 0001:00024ad0       __matherr                  00425ad0 f   msvcrt:merr.obj
 0001:00024ad0       __setargv                  00425ad0 f   msvcrt:dllargv.obj
 0001:00024ad3       ___security_init_cookie    00425ad3 f   msvcrt:gs_support.obj
 0001:00024b6e       __crt_debugger_hook        00425b6e f   msvcrt:MSVCR100.dll
 0001:00024b74       ??1type_info@@UAE@XZ       00425b74 f   msvcrt:MSVCR100.dll
 0001:00024b74       ?_type_info_dtor_internal_method@type_info@@QAEXXZ 00425b74 f   msvcrt:MSVCR100.dll
 0001:00024b7a       __except_handler4_common   00425b7a f   msvcrt:MSVCR100.dll
 0001:00024b80       __unlock                   00425b80 f   msvcrt:MSVCR100.dll
 0001:00024b86       ___dllonexit               00425b86 f   msvcrt:MSVCR100.dll
 0001:00024b8c       __lock                     00425b8c f   msvcrt:MSVCR100.dll
 0001:00024b92       __invoke_watson            00425b92 f   msvcrt:MSVCR100.dll
 0001:00024b98       __controlfp_s              00425b98 f   msvcrt:MSVCR100.dll
 0001:00024ba0       ?decodePolyIdSalt@dtNavMesh@@QBEI_K@Z 00425ba0 f i Detour:DetourNavMesh.obj
 0001:00024c80       ??1dtNavMesh@@QAE@XZ       00425c80 f   Detour:DetourNavMesh.obj
 0001:00024ce0       ?init@dtNavMesh@@QAE?AW4dtStatus@@PBUdtNavMeshParams@@@Z 00425ce0 f   Detour:DetourNavMesh.obj
 0001:00024e40       ?getParams@dtNavMesh@@QBEPBUdtNavMeshParams@@XZ 00425e40 f   Detour:DetourNavMesh.obj
 0001:00024e50       ?unconnectExtLinks@dtNavMesh@@AAEXPAUdtMeshTile@@H@Z 00425e50 f   Detour:DetourNavMesh.obj
 0001:00024f10       ?closestPointOnPolyInTile@dtNavMesh@@ABE?AW4dtStatus@@PBUdtMeshTile@@IPBMPAM@Z 00425f10 f   Detour:DetourNavMesh.obj
 0001:000250b0       ?getTileAt@dtNavMesh@@QBEPBUdtMeshTile@@HH@Z 004260b0 f   Detour:DetourNavMesh.obj
 0001:00025100       ?getNeighbourTileAt@dtNavMesh@@ABEPAUdtMeshTile@@HHH@Z 00426100 f   Detour:DetourNavMesh.obj
 0001:000251c0       ?removeTile@dtNavMesh@@QAE?AW4dtStatus@@_KPAPAEPAH@Z 004261c0 f   Detour:DetourNavMesh.obj
 0001:00025350       ?getTileRef@dtNavMesh@@QBE_KPBUdtMeshTile@@@Z 00426350 f   Detour:DetourNavMesh.obj
 0001:00025350       ?getPolyRefBase@dtNavMesh@@QBE_KPBUdtMeshTile@@@Z 00426350 f   Detour:DetourNavMesh.obj
 0001:000253c0       ?dtVmin@@YAXPAMPBM@Z       004263c0 f i Detour:DetourNavMesh.obj
 0001:00025450       ?dtVmax@@YAXPAMPBM@Z       00426450 f i Detour:DetourNavMesh.obj
 0001:000254e0       ?overlapSlabs@@YA_NPBM000MM@Z 004264e0 f i Detour:DetourNavMesh.obj
 0001:00025640       ?dtAllocNavMesh@@YAPAVdtNavMesh@@XZ 00426640 f   Detour:DetourNavMesh.obj
 0001:00025690       ?findConnectingPolys@dtNavMesh@@ABEHPBM0PBUdtMeshTile@@HPA_KPAMH@Z 00426690 f   Detour:DetourNavMesh.obj
 0001:00025840       ?connectExtLinks@dtNavMesh@@AAEXPAUdtMeshTile@@0H@Z 00426840 f   Detour:DetourNavMesh.obj
 0001:00025bb0       ?connectIntLinks@dtNavMesh@@AAEXPAUdtMeshTile@@@Z 00426bb0 f   Detour:DetourNavMesh.obj
 0001:00025cb0       ?queryPolygonsInTile@dtNavMesh@@ABEHPBUdtMeshTile@@PBM1PA_KH@Z 00426cb0 f   Detour:DetourNavMesh.obj
 0001:000261a0       ?dtFreeNavMesh@@YAXPAVdtNavMesh@@@Z 004271a0 f   Detour:DetourNavMesh.obj
 0001:000261c0       ?findNearestPolyInTile@dtNavMesh@@ABE_KPBUdtMeshTile@@PBM1PAM@Z 004271c0 f   Detour:DetourNavMesh.obj
 0001:000263c0       ?connectExtOffMeshLinks@dtNavMesh@@AAEXPAUdtMeshTile@@0H@Z 004273c0 f   Detour:DetourNavMesh.obj
 0001:000265c0       ?connectIntOffMeshLinks@dtNavMesh@@AAEXPAUdtMeshTile@@@Z 004275c0 f   Detour:DetourNavMesh.obj
 0001:000267c0       ?addTile@dtNavMesh@@QAE?AW4dtStatus@@PAEHH_KPA_K@Z 004277c0 f   Detour:DetourNavMesh.obj
 0001:00026f70       ?dtCreateNavMeshData@@YA_NPAUdtNavMeshCreateParams@@PAPAEPAH@Z 00427f70 f   Detour:DetourNavMeshBuilder.obj
 0001:00027800       ?dtAlloc@@YAPAXHW4dtAllocHint@@@Z 00428800 f   Detour:DetourAlloc.obj
 0001:00027810       ?dtFree@@YAXPAX@Z          00428810 f   Detour:DetourAlloc.obj
 0001:00027830       ?dtClosestPtPointTriangle@@YAXPAMPBM111@Z 00428830 f   Detour:DetourCommon.obj
 0001:00027c10       ?zero@Vector3@G3D@@SAABV12@XZ 00428c10 f   g3dlite:Vector3.obj
 0001:00027c50       ?one@Vector3@G3D@@SAABV12@XZ 00428c50 f   g3dlite:Vector3.obj
 0001:00027c90       ?inf@G3D@@YANXZ            00428c90 f   g3dlite:g3dmath.obj
 0001:00027ca0       ?finf@G3D@@YAMXZ           00428ca0 f   g3dlite:g3dmath.obj
 0001:00027cb0       ?set@Ray@G3D@@QAEXABVVector3@2@0@Z 00428cb0 f   g3dlite:Ray.obj
 0001:000280a0       ?intersectionTime@Ray@G3D@@QBEMABVAABox@2@@Z 004290a0 f   g3dlite:Ray.obj
 0001:00028110       ??0Matrix3@G3D@@QAE@ABV01@@Z 00429110 f   g3dlite:Matrix3.obj
 0001:00028130       ??DMatrix3@G3D@@QBE?AV01@ABV01@@Z 00429130 f   g3dlite:Matrix3.obj
 0001:000282a0       ?inverse@Matrix3@G3D@@QBE_NAAV12@M@Z 004292a0 f   g3dlite:Matrix3.obj
 0001:000283d0       ?fromEulerAnglesZYX@Matrix3@G3D@@SA?AV12@MMM@Z 004293d0 f   g3dlite:Matrix3.obj
 0001:00028590       ?inverse@Matrix3@G3D@@QBE?AV12@M@Z 00429590 f   g3dlite:Matrix3.obj
 0001:00028620       ?alloc@MemoryManager@G3D@@UAEPAXI@Z 00429620 f   g3dlite:MemoryManager.obj
 0001:00028640       ?free@MemoryManager@G3D@@UAEXPAX@Z 00429640 f   g3dlite:MemoryManager.obj
 0001:00028660       ?isThreadsafe@MemoryManager@G3D@@UBE_NXZ 00429660 f   g3dlite:MemoryManager.obj
 0001:00028670       ??_GMemoryManager@G3D@@UAEPAXI@Z 00429670 f i g3dlite:MemoryManager.obj
 0001:00028670       ??_EMemoryManager@G3D@@UAEPAXI@Z 00429670 f i g3dlite:MemoryManager.obj
 0001:000286a0       ?create@MemoryManager@G3D@@SA?AV?$ReferenceCountedPointer@VMemoryManager@G3D@@@2@XZ 004296a0 f   g3dlite:MemoryManager.obj
 0001:00028770       ??0ReferenceCountedObject@G3D@@IAE@XZ 00429770 f   g3dlite:ReferenceCount.obj
 0001:00028790       ?ReferenceCountedObject_zeroWeakPointers@ReferenceCountedObject@G3D@@QAEXXZ 00429790 f   g3dlite:ReferenceCount.obj
 0001:000287c0       ??1ReferenceCountedObject@G3D@@UAE@XZ 004297c0 f   g3dlite:ReferenceCount.obj
 0001:000287d0       ??_GReferenceCountedObject@G3D@@UAEPAXI@Z 004297d0 f i g3dlite:ReferenceCount.obj
 0001:000287d0       ??_EReferenceCountedObject@G3D@@UAEPAXI@Z 004297d0 f i g3dlite:ReferenceCount.obj
 0001:00028800       ?lock@BufferPool@G3D@@AAEXXZ 00429800 f i g3dlite:System.obj
 0001:00028840       ?flushPool@BufferPool@G3D@@AAEXPAVMemBlock@12@AAH@Z 00429840 f i g3dlite:System.obj
 0001:00028890       ?malloc@BufferPool@G3D@@AAEPAXPAVMemBlock@12@AAHI@Z 00429890 f i g3dlite:System.obj
 0001:000288e0       ?free@BufferPool@G3D@@QAEXPAX@Z 004298e0 f i g3dlite:System.obj
 0001:000289f0       ?free@System@G3D@@SAXPAX@Z 004299f0 f   g3dlite:System.obj
 0001:00028a10       ?getStandardProcessorExtensions@System@G3D@@AAEXXZ 00429a10 f   g3dlite:System.obj
 0001:00028ad0       ??0BufferPool@G3D@@QAE@XZ  00429ad0 f i g3dlite:System.obj
 0001:00028b90       ??1System@G3D@@QAE@XZ      00429b90 f i g3dlite:System.obj
 0001:00028c40       ??1?$Array@V?$basic_string@DU?$char_traits@D@std@@V?$allocator@D@2@@std@@$09$0CA@@G3D@@QAE@XZ 00429c40 f i g3dlite:System.obj
 0001:00028d10       ??4?$basic_string@DU?$char_traits@D@std@@V?$allocator@D@2@@std@@QAEAAV01@PBD@Z 00429d10 f i g3dlite:System.obj
 0001:00028d40       ?realloc@?$Array@V?$basic_string@DU?$char_traits@D@std@@V?$allocator@D@2@@std@@$09$0CA@@G3D@@AAEXH@Z 00429d40 f i g3dlite:System.obj
 0001:00028f20       ?resize@?$Array@V?$basic_string@DU?$char_traits@D@std@@V?$allocator@D@2@@std@@$09$0CA@@G3D@@QAEXH_N@Z 00429f20 f i g3dlite:System.obj
 0001:00029090       ??$?HDU?$char_traits@D@std@@V?$allocator@D@1@@std@@YA?AV?$basic_string@DU?$char_traits@D@std@@V?$allocator@D@2@@0@PBDABV10@@Z 0042a090 f i g3dlite:System.obj
 0001:00029160       ?init@System@G3D@@AAEXXZ   0042a160 f   g3dlite:System.obj
 0001:000295a0       ?append@?$Array@V?$basic_string@DU?$char_traits@D@std@@V?$allocator@D@2@@std@@$09$0CA@@G3D@@QAEXABV?$basic_string@DU?$char_traits@D@std@@V?$allocator@D@2@@std@@@Z 0042a5a0 f i g3dlite:System.obj
 0001:000296c0       ??0System@G3D@@AAE@XZ      0042a6c0 f   g3dlite:System.obj
 0001:000297c0       ?outOfMemoryCallback@System@G3D@@SAP6A_NI_N@ZXZ 0042a7c0 f i g3dlite:System.obj
 0001:00029830       ?malloc@BufferPool@G3D@@QAEPAXI@Z 0042a830 f i g3dlite:System.obj
 0001:00029ab0       ?malloc@System@G3D@@SAPAXI@Z 0042aab0 f   g3dlite:System.obj
 0001:00029b70       ?_releaseInputGrab_@_internal@G3D@@YAXXZ 0042ab70 f   g3dlite:debugAssert.obj
 0001:00029be0       ?_restoreInputGrab_@_internal@G3D@@YAXXZ 0042abe0 f   g3dlite:debugAssert.obj
 0001:00029c40       ?debugPrint@G3D@@YA?AV?$basic_string@DU?$char_traits@D@std@@V?$allocator@D@2@@std@@ABV23@@Z 0042ac40 f   g3dlite:debugAssert.obj
 0001:00029d10       ?debugPrintf@G3D@@YA?AV?$basic_string@DU?$char_traits@D@std@@V?$allocator@D@2@@std@@PBDZZ 0042ad10 f   g3dlite:debugAssert.obj
 0001:00029da0       ??$?HDU?$char_traits@D@std@@V?$allocator@D@1@@std@@YA?AV?$basic_string@DU?$char_traits@D@std@@V?$allocator@D@2@@0@$$QAV10@0@Z 0042ada0 f i g3dlite:debugAssert.obj
 0001:0002a150       ?_handleDebugAssert_@_internal@G3D@@YA_NPBDABV?$basic_string@DU?$char_traits@D@std@@V?$allocator@D@2@@std@@0H_N@Z 0042b150 f   g3dlite:debugAssert.obj
 0001:0002a440       ?_handleErrorCheck_@_internal@G3D@@YA_NPBDABV?$basic_string@DU?$char_traits@D@std@@V?$allocator@D@2@@std@@0H_N@Z 0042b440 f   g3dlite:debugAssert.obj
 0001:0002a7b0       ?vformat@G3D@@YA?AV?$basic_string@DU?$char_traits@D@std@@V?$allocator@D@2@@std@@PBDPAD@Z 0042b7b0 f   g3dlite:format.obj
 0001:0002a940       ?format@G3D@@YA?AV?$basic_string@DU?$char_traits@D@std@@V?$allocator@D@2@@std@@PBDZZ 0042b940 f   g3dlite:format.obj
 0001:0002a970       ?freeMemory@?$Table@V?$basic_string@DU?$char_traits@D@std@@V?$allocator@D@2@@std@@_NU?$HashTrait@V?$basic_string@DU?$char_traits@D@std@@V?$allocator@D@2@@std@@@@U?$EqualsTrait@V?$basic_string@DU?$char_traits@D@std@@V?$allocator@D@2@@std@@@@@G3D@@AAEXXZ 0042b970 f i g3dlite:Any.obj
 0001:0002aa10       ??_E?$Table@V?$basic_string@DU?$char_traits@D@std@@V?$allocator@D@2@@std@@_NU?$HashTrait@V?$basic_string@DU?$char_traits@D@std@@V?$allocator@D@2@@std@@@@U?$EqualsTrait@V?$basic_string@DU?$char_traits@D@std@@V?$allocator@D@2@@std@@@@@G3D@@UAEPAXI@Z 0042ba10 f i g3dlite:Any.obj
 0001:0002aa10       ??_G?$Table@V?$basic_string@DU?$char_traits@D@std@@V?$allocator@D@2@@std@@_NU?$HashTrait@V?$basic_string@DU?$char_traits@D@std@@V?$allocator@D@2@@std@@@@U?$EqualsTrait@V?$basic_string@DU?$char_traits@D@std@@V?$allocator@D@2@@std@@@@@G3D@@UAEPAXI@Z 0042ba10 f i g3dlite:Any.obj
 0001:0002aab0       ??1?$Set@V?$basic_string@DU?$char_traits@D@std@@V?$allocator@D@2@@std@@U?$HashTrait@V?$basic_string@DU?$char_traits@D@std@@V?$allocator@D@2@@std@@@@U?$EqualsTrait@V?$basic_string@DU?$char_traits@D@std@@V?$allocator@D@2@@std@@@@@G3D@@UAE@XZ 0042bab0 f i g3dlite:Any.obj
 0001:0002ab40       ??_E?$Set@V?$basic_string@DU?$char_traits@D@std@@V?$allocator@D@2@@std@@U?$HashTrait@V?$basic_string@DU?$char_traits@D@std@@V?$allocator@D@2@@std@@@@U?$EqualsTrait@V?$basic_string@DU?$char_traits@D@std@@V?$allocator@D@2@@std@@@@@G3D@@UAEPAXI@Z 0042bb40 f i g3dlite:Any.obj
 0001:0002ab40       ??_G?$Set@V?$basic_string@DU?$char_traits@D@std@@V?$allocator@D@2@@std@@U?$HashTrait@V?$basic_string@DU?$char_traits@D@std@@V?$allocator@D@2@@std@@@@U?$EqualsTrait@V?$basic_string@DU?$char_traits@D@std@@V?$allocator@D@2@@std@@@@@G3D@@UAEPAXI@Z 0042bb40 f i g3dlite:Any.obj
 0001:0002ab70       ??0?$Table@V?$basic_string@DU?$char_traits@D@std@@V?$allocator@D@2@@std@@_NU?$HashTrait@V?$basic_string@DU?$char_traits@D@std@@V?$allocator@D@2@@std@@@@U?$EqualsTrait@V?$basic_string@DU?$char_traits@D@std@@V?$allocator@D@2@@std@@@@@G3D@@QAE@XZ 0042bb70 f i g3dlite:TextInput.obj
 0001:0002ac60       ?collisionLocationForMovingPointFixedAABox@CollisionDetection@G3D@@SA_NABVVector3@2@0ABVAABox@2@AAV32@AA_N2@Z 0042bc60 f   g3dlite:CollisionDetection.obj
 0001:0002aeb0       ?collisionTimeForMovingPointFixedAABox@CollisionDetection@G3D@@SAMABVVector3@2@0ABVAABox@2@AAV32@AA_N2@Z 0042beb0 f   g3dlite:CollisionDetection.obj
 0001:0002af00       ??0?$Array@VVector3@G3D@@$09$0CA@@G3D@@QAE@XZ 0042bf00 f i g3dlite:CollisionDetection.obj
 0001:0002af00       ??0?$Array@V?$basic_string@DU?$char_traits@D@std@@V?$allocator@D@2@@std@@$09$0CA@@G3D@@QAE@XZ 0042bf00 f i g3dlite:System.obj
 0001:0002afe0       ?rfind@?$basic_string@DU?$char_traits@D@std@@V?$allocator@D@2@@std@@QBEIPBDII@Z 0042bfe0 f i g3dlite:fileutils.obj
 0001:0002b070       ?parseFilename@G3D@@YAXABV?$basic_string@DU?$char_traits@D@std@@V?$allocator@D@2@@std@@AAV23@AAV?$Array@V?$basic_string@DU?$char_traits@D@std@@V?$allocator@D@2@@std@@$09$0CA@@1@11@Z 0042c070 f   g3dlite:fileutils.obj
 0001:0002b680       ?readInt32@RegistryUtil@G3D@@SA_NABV?$basic_string@DU?$char_traits@D@std@@V?$allocator@D@2@@std@@0AAH@Z 0042c680 f   g3dlite:RegistryUtil.obj
 0001:0002b740       ?print@Log@G3D@@QAEXABV?$basic_string@DU?$char_traits@D@std@@V?$allocator@D@2@@std@@@Z 0042c740 f   g3dlite:Log.obj
 0001:0002b780       ??1Log@G3D@@UAE@XZ         0042c780 f   g3dlite:Log.obj
 0001:0002b8d0       ??_GLog@G3D@@UAEPAXI@Z     0042c8d0 f i g3dlite:Log.obj
 0001:0002b8d0       ??_ELog@G3D@@UAEPAXI@Z     0042c8d0 f i g3dlite:Log.obj
 0001:0002b900       ??0Log@G3D@@QAE@ABV?$basic_string@DU?$char_traits@D@std@@V?$allocator@D@2@@std@@H@Z 0042c900 f   g3dlite:Log.obj
 0001:0002bcd0       ?common@Log@G3D@@SAPAV12@XZ 0042ccd0 f   g3dlite:Log.obj
 0001:0002bd90       ?getCommonLogFilename@Log@G3D@@SA?AV?$basic_string@DU?$char_traits@D@std@@V?$allocator@D@2@@std@@XZ 0042cd90 f   g3dlite:Log.obj
 0001:0002bed0       ?prompt@G3D@@YAHPBD0PAPBDH_N@Z 0042ced0 f   g3dlite:prompt.obj
 0001:0002c1b0       _crc32                     0042d1b0 f   zlib:crc32.obj
 0001:0002cf50       _adler32                   0042df50 f   zlib:adler32.obj
 0001:0002e740       __tr_stored_block          0042f740 f   zlib:trees.obj
 0001:0002e7f0       __tr_flush_block           0042f7f0 f   zlib:trees.obj
 0001:0002e9f0       ?imbue@?$basic_streambuf@DU?$char_traits@D@std@@@std@@MAEXABVlocale@2@@Z 0042f9f0 f   MSVCPRT:MSVCP100.dll
 0001:0002e9f6       ?sync@?$basic_streambuf@DU?$char_traits@D@std@@@std@@MAEHXZ 0042f9f6 f   MSVCPRT:MSVCP100.dll
 0001:0002e9fc       ?setbuf@?$basic_streambuf@DU?$char_traits@D@std@@@std@@MAEPAV12@PAD_J@Z 0042f9fc f   MSVCPRT:MSVCP100.dll
 0001:0002ea02       ?xsputn@?$basic_streambuf@DU?$char_traits@D@std@@@std@@MAE_JPBD_J@Z 0042fa02 f   MSVCPRT:MSVCP100.dll
 0001:0002ea08       ?xsgetn@?$basic_streambuf@DU?$char_traits@D@std@@@std@@MAE_JPAD_J@Z 0042fa08 f   MSVCPRT:MSVCP100.dll
 0001:0002ea0e       ?uflow@?$basic_streambuf@DU?$char_traits@D@std@@@std@@MAEHXZ 0042fa0e f   MSVCPRT:MSVCP100.dll
 0001:0002ea14       ?showmanyc@?$basic_streambuf@DU?$char_traits@D@std@@@std@@MAE_JXZ 0042fa14 f   MSVCPRT:MSVCP100.dll
 0001:0002ea1a       ?_Unlock@?$basic_streambuf@DU?$char_traits@D@std@@@std@@UAEXXZ 0042fa1a f   MSVCPRT:MSVCP100.dll
 0001:0002ea20       ?_Lock@?$basic_streambuf@DU?$char_traits@D@std@@@std@@UAEXXZ 0042fa20 f   MSVCPRT:MSVCP100.dll
 0001:0002ea30       _floor                     0042fa30 f   msvcrt:MSVCR100.dll
 0001:0002ea40       __allshl                   0042fa40 f   msvcrt:llshl.obj
 0001:0002ea60       __aullshr                  0042fa60 f   msvcrt:ullshr.obj
 0001:0002ea80       _memset                    0042fa80 f   msvcrt:MSVCR100.dll
 0001:0002ea90       __ftol2_sse                0042fa90 f   msvcrt:ftol2.obj
 0001:0002ea99       __ftol2_pentium4           0042fa99 f   msvcrt:ftol2.obj
 0001:0002eaac       __ftol2_sse_excpt          0042faac f   msvcrt:ftol2.obj
 0001:0002eac6       __ftol2                    0042fac6 f   msvcrt:ftol2.obj
 0001:0002eb3c       _memcpy                    0042fb3c f   msvcrt:MSVCR100.dll
 0001:0002eb42       __CIsqrt                   0042fb42 f   msvcrt:MSVCR100.dll
 0001:0002eb48       ___CxxFrameHandler3        0042fb48 f   msvcrt:MSVCR100.dll
 0001:0002eb4e       __CxxThrowException@8      0042fb4e f   msvcrt:MSVCR100.dll
 0001:0002eb54       __CIlog                    0042fb54 f   msvcrt:MSVCR100.dll
 0001:0002eb5a       __CIcos                    0042fb5a f   msvcrt:MSVCR100.dll
 0001:0002eb60       __CIsin                    0042fb60 f   msvcrt:MSVCR100.dll
 0001:0002eb70       __allmul                   0042fb70 f   msvcrt:llmul.obj
 0001:0002ebb0       __alldiv                   0042fbb0 f   msvcrt:lldiv.obj
 0001:0002ec5a       ___sse2_available_init     0042fc5a f   msvcrt:cpu_disp.obj
 0001:0002ec70       __chkstk                   0042fc70 f   msvcrt:chkstk.obj
 0001:0002ec70       __alloca_probe             0042fc70     msvcrt:chkstk.obj
 0002:00000000       __imp__RegQueryValueExA@24 00432000     advapi32:ADVAPI32.dll
 0002:00000004       __imp__RegOpenKeyExA@20    00432004     advapi32:ADVAPI32.dll
 0002:00000008       __imp__RegCloseKey@4       00432008     advapi32:ADVAPI32.dll
 0002:0000000c       \177ADVAPI32_NULL_THUNK_DATA 0043200c     advapi32:ADVAPI32.dll
 0002:00000010       __imp__IsProcessorFeaturePresent@4 00432010     kernel32:KERNEL32.dll
 0002:00000014       __imp__SetLastError@4      00432014     kernel32:KERNEL32.dll
 0002:00000018       __imp__GetLastError@0      00432018     kernel32:KERNEL32.dll
 0002:0000001c       __imp__FormatMessageA@28   0043201c     kernel32:KERNEL32.dll
 0002:00000020       __imp__LocalFree@4         00432020     kernel32:KERNEL32.dll
 0002:00000024       __imp__OutputDebugStringA@4 00432024     kernel32:KERNEL32.dll
 0002:00000028       __imp__GetSystemInfo@4     00432028     kernel32:KERNEL32.dll
 0002:0000002c       __imp__GetVersionExA@4     0043202c     kernel32:KERNEL32.dll
 0002:00000030       __imp__GetModuleFileNameA@12 00432030     kernel32:KERNEL32.dll
 0002:00000034       __imp__GlobalAlloc@8       00432034     kernel32:KERNEL32.dll
 0002:00000038       __imp__GlobalLock@4        00432038     kernel32:KERNEL32.dll
 0002:0000003c       __imp__GlobalUnlock@4      0043203c     kernel32:KERNEL32.dll
 0002:00000040       __imp__GlobalFree@4        00432040     kernel32:KERNEL32.dll
 0002:00000044       __imp__QueryPerformanceFrequency@4 00432044     kernel32:KERNEL32.dll
 0002:00000048       __imp__GetSystemTimeAsFileTime@4 00432048     kernel32:KERNEL32.dll
 0002:0000004c       __imp__GetCurrentProcessId@0 0043204c     kernel32:KERNEL32.dll
 0002:00000050       __imp__GetCurrentThreadId@0 00432050     kernel32:KERNEL32.dll
 0002:00000054       __imp__GetTickCount@0      00432054     kernel32:KERNEL32.dll
 0002:00000058       __imp__QueryPerformanceCounter@4 00432058     kernel32:KERNEL32.dll
 0002:0000005c       __imp__DecodePointer@4     0043205c     kernel32:KERNEL32.dll
 0002:00000060       __imp__IsDebuggerPresent@0 00432060     kernel32:KERNEL32.dll
 0002:00000064       __imp__SetUnhandledExceptionFilter@4 00432064     kernel32:KERNEL32.dll
 0002:00000068       __imp__UnhandledExceptionFilter@4 00432068     kernel32:KERNEL32.dll
 0002:0000006c       __imp__GetCurrentProcess@0 0043206c     kernel32:KERNEL32.dll
 0002:00000070       __imp__TerminateProcess@8  00432070     kernel32:KERNEL32.dll
 0002:00000074       __imp__EncodePointer@4     00432074     kernel32:KERNEL32.dll
 0002:00000078       __imp__HeapSetInformation@16 00432078     kernel32:KERNEL32.dll
 0002:0000007c       __imp__InterlockedCompareExchange@12 0043207c     kernel32:KERNEL32.dll
 0002:00000080       __imp__Sleep@4             00432080     kernel32:KERNEL32.dll
 0002:00000084       __imp__InterlockedExchange@8 00432084     kernel32:KERNEL32.dll
 0002:00000088       __imp__FindNextFileA@8     00432088     kernel32:KERNEL32.dll
 0002:0000008c       __imp__FindClose@4         0043208c     kernel32:KERNEL32.dll
 0002:00000090       __imp__FindFirstFileA@8    00432090     kernel32:KERNEL32.dll
 0002:00000094       __imp__InterlockedDecrement@4 00432094     kernel32:KERNEL32.dll
 0002:00000098       __imp__InterlockedIncrement@4 00432098     kernel32:KERNEL32.dll
 0002:0000009c       \177KERNEL32_NULL_THUNK_DATA 0043209c     kernel32:KERNEL32.dll
 0002:000000a0       __imp_?setbuf@?$basic_streambuf@DU?$char_traits@D@std@@@std@@MAEPAV12@PAD_J@Z 004320a0     MSVCPRT:MSVCP100.dll
 0002:000000a4       __imp_?sync@?$basic_streambuf@DU?$char_traits@D@std@@@std@@MAEHXZ 004320a4     MSVCPRT:MSVCP100.dll
 0002:000000a8       __imp_?imbue@?$basic_streambuf@DU?$char_traits@D@std@@@std@@MAEXABVlocale@2@@Z 004320a8     MSVCPRT:MSVCP100.dll
 0002:000000ac       __imp_??1?$basic_ios@DU?$char_traits@D@std@@@std@@UAE@XZ 004320ac     MSVCPRT:MSVCP100.dll
 0002:000000b0       __imp_?setstate@?$basic_ios@DU?$char_traits@D@std@@@std@@QAEXH_N@Z 004320b0     MSVCPRT:MSVCP100.dll
 0002:000000b4       __imp_??6?$basic_ostream@DU?$char_traits@D@std@@@std@@QAEAAV01@I@Z 004320b4     MSVCPRT:MSVCP100.dll
 0002:000000b8       __imp_?flush@?$basic_ostream@DU?$char_traits@D@std@@@std@@QAEAAV12@XZ 004320b8     MSVCPRT:MSVCP100.dll
 0002:000000bc       __imp_??1?$basic_iostream@DU?$char_traits@D@std@@@std@@UAE@XZ 004320bc     MSVCPRT:MSVCP100.dll
 0002:000000c0       __imp_?xsputn@?$basic_streambuf@DU?$char_traits@D@std@@@std@@MAE_JPBD_J@Z 004320c0     MSVCPRT:MSVCP100.dll
 0002:000000c4       __imp_?xsgetn@?$basic_streambuf@DU?$char_traits@D@std@@@std@@MAE_JPAD_J@Z 004320c4     MSVCPRT:MSVCP100.dll
 0002:000000c8       __imp_?uflow@?$basic_streambuf@DU?$char_traits@D@std@@@std@@MAEHXZ 004320c8     MSVCPRT:MSVCP100.dll
 0002:000000cc       __imp_?_Unlock@?$basic_streambuf@DU?$char_traits@D@std@@@std@@UAEXXZ 004320cc     MSVCPRT:MSVCP100.dll
 0002:000000d0       __imp_?_Lock@?$basic_streambuf@DU?$char_traits@D@std@@@std@@UAEXXZ 004320d0     MSVCPRT:MSVCP100.dll
 0002:000000d4       __imp_??1?$basic_streambuf@DU?$char_traits@D@std@@@std@@UAE@XZ 004320d4     MSVCPRT:MSVCP100.dll
 0002:000000d8       __imp___Inf                004320d8     MSVCPRT:MSVCP100.dll
 0002:000000dc       __imp___FInf               004320dc     MSVCPRT:MSVCP100.dll
 0002:000000e0       __imp_?showmanyc@?$basic_streambuf@DU?$char_traits@D@std@@@std@@MAE_JXZ 004320e0     MSVCPRT:MSVCP100.dll
 0002:000000e4       __imp_?_Xlength_error@std@@YAXPBD@Z 004320e4     MSVCPRT:MSVCP100.dll
 0002:000000e8       __imp_?_Orphan_all@_Container_base0@std@@QAEXXZ 004320e8     MSVCPRT:MSVCP100.dll
 0002:000000ec       __imp_?setw@std@@YA?AU?$_Smanip@_J@1@_J@Z 004320ec     MSVCPRT:MSVCP100.dll
 0002:000000f0       __imp_?_BADOFF@std@@3_JB   004320f0     MSVCPRT:MSVCP100.dll
 0002:000000f4       __imp_?_Xout_of_range@std@@YAXPBD@Z 004320f4     MSVCPRT:MSVCP100.dll
 0002:000000f8       __imp_?uncaught_exception@std@@YA_NXZ 004320f8     MSVCPRT:MSVCP100.dll
 0002:000000fc       __imp_?sputn@?$basic_streambuf@DU?$char_traits@D@std@@@std@@QAE_JPBD_J@Z 004320fc     MSVCPRT:MSVCP100.dll
 0002:00000100       __imp_?_Osfx@?$basic_ostream@DU?$char_traits@D@std@@@std@@QAEXXZ 00432100     MSVCPRT:MSVCP100.dll
 0002:00000104       __imp_??0?$basic_streambuf@DU?$char_traits@D@std@@@std@@IAE@XZ 00432104     MSVCPRT:MSVCP100.dll
 0002:00000108       __imp_??0?$basic_iostream@DU?$char_traits@D@std@@@std@@QAE@PAV?$basic_streambuf@DU?$char_traits@D@std@@@1@@Z 00432108     MSVCPRT:MSVCP100.dll
 0002:0000010c       __imp_??0?$basic_ios@DU?$char_traits@D@std@@@std@@IAE@XZ 0043210c     MSVCPRT:MSVCP100.dll
 0002:00000110       __imp_?_Pninc@?$basic_streambuf@DU?$char_traits@D@std@@@std@@IAEPADXZ 00432110     MSVCPRT:MSVCP100.dll
 0002:00000114       __imp_?sputc@?$basic_streambuf@DU?$char_traits@D@std@@@std@@QAEHD@Z 00432114     MSVCPRT:MSVCP100.dll
 0002:00000118       \177MSVCP100_NULL_THUNK_DATA 00432118     MSVCPRT:MSVCP100.dll
 0002:0000011c       __imp___controlfp_s        0043211c     msvcrt:MSVCR100.dll
 0002:00000120       __imp___invoke_watson      00432120     msvcrt:MSVCR100.dll
 0002:00000124       __imp___onexit             00432124     msvcrt:MSVCR100.dll
 0002:00000128       __imp___lock               00432128     msvcrt:MSVCR100.dll
 0002:0000012c       __imp____dllonexit         0043212c     msvcrt:MSVCR100.dll
 0002:00000130       __imp___unlock             00432130     msvcrt:MSVCR100.dll
 0002:00000134       __imp___except_handler4_common 00432134     msvcrt:MSVCR100.dll
 0002:00000138       __imp_?_type_info_dtor_internal_method@type_info@@QAEXXZ 00432138     msvcrt:MSVCR100.dll
 0002:0000013c       __imp___crt_debugger_hook  0043213c     msvcrt:MSVCR100.dll
 0002:00000140       __imp____set_app_type      00432140     msvcrt:MSVCR100.dll
 0002:00000144       __imp___fmode              00432144     msvcrt:MSVCR100.dll
 0002:00000148       __imp___commode            00432148     msvcrt:MSVCR100.dll
 0002:0000014c       __imp____setusermatherr    0043214c     msvcrt:MSVCR100.dll
 0002:00000150       __imp___configthreadlocale 00432150     msvcrt:MSVCR100.dll
 0002:00000154       __imp___initterm_e         00432154     msvcrt:MSVCR100.dll
 0002:00000158       __imp___initterm           00432158     msvcrt:MSVCR100.dll
 0002:0000015c       __imp____initenv           0043215c     msvcrt:MSVCR100.dll
 0002:00000160       __imp___XcptFilter         00432160     msvcrt:MSVCR100.dll
 0002:00000164       __imp___exit               00432164     msvcrt:MSVCR100.dll
 0002:00000168       __imp___cexit              00432168     msvcrt:MSVCR100.dll
 0002:0000016c       __imp____getmainargs       0043216c     msvcrt:MSVCR100.dll
 0002:00000170       __imp___amsg_exit          00432170     msvcrt:MSVCR100.dll
 0002:00000174       __imp_?terminate@@YAXXZ    00432174     msvcrt:MSVCR100.dll
 0002:00000178       __imp__exit                00432178     msvcrt:MSVCR100.dll
 0002:0000017c       __imp__fprintf             0043217c     msvcrt:MSVCR100.dll
 0002:00000180       __imp__fflush              00432180     msvcrt:MSVCR100.dll
 0002:00000184       __imp__memchr              00432184     msvcrt:MSVCR100.dll
 0002:00000188       __imp__perror              00432188     msvcrt:MSVCR100.dll
 0002:0000018c       __imp__sprintf             0043218c     msvcrt:MSVCR100.dll
 0002:00000190       __imp__getchar             00432190     msvcrt:MSVCR100.dll
 0002:00000194       __imp__atof                00432194     msvcrt:MSVCR100.dll
 0002:00000198       __imp__strtok              00432198     msvcrt:MSVCR100.dll
 0002:0000019c       __imp___purecall           0043219c     msvcrt:MSVCR100.dll
 0002:000001a0       __imp__floor               004321a0     msvcrt:MSVCR100.dll
 0002:000001a4       __imp__memset              004321a4     msvcrt:MSVCR100.dll
 0002:000001a8       __imp__ceil                004321a8     msvcrt:MSVCR100.dll
 0002:000001ac       __imp__qsort               004321ac     msvcrt:MSVCR100.dll
 0002:000001b0       __imp__memcpy              004321b0     msvcrt:MSVCR100.dll
 0002:000001b4       __imp__malloc              004321b4     msvcrt:MSVCR100.dll
 0002:000001b8       __imp__free                004321b8     msvcrt:MSVCR100.dll
 0002:000001bc       __imp___CIsqrt             004321bc     msvcrt:MSVCR100.dll
 0002:000001c0       __imp____CxxFrameHandler3  004321c0     msvcrt:MSVCR100.dll
 0002:000001c4       __imp___CxxThrowException@8 004321c4     msvcrt:MSVCR100.dll
 0002:000001c8       __imp___CIlog              004321c8     msvcrt:MSVCR100.dll
 0002:000001cc       __imp___CIcos              004321cc     msvcrt:MSVCR100.dll
 0002:000001d0       __imp___CIsin              004321d0     msvcrt:MSVCR100.dll
 0002:000001d4       __imp___time64             004321d4     msvcrt:MSVCR100.dll
 0002:000001d8       __imp___getch              004321d8     msvcrt:MSVCR100.dll
 0002:000001dc       __imp___ftime64            004321dc     msvcrt:MSVCR100.dll
 0002:000001e0       __imp__getenv              004321e0     msvcrt:MSVCR100.dll
 0002:000001e4       __imp__strrchr             004321e4     msvcrt:MSVCR100.dll
 0002:000001e8       __imp__vsprintf            004321e8     msvcrt:MSVCR100.dll
 0002:000001ec       __imp___vsnprintf          004321ec     msvcrt:MSVCR100.dll
 0002:000001ec       __imp__vsnprintf           004321ec     msvcrt:MSVCR100.dll
 0002:000001f0       __imp___vscprintf          004321f0     msvcrt:MSVCR100.dll
 0002:000001f4       __imp__strncmp             004321f4     msvcrt:MSVCR100.dll
 0002:000001f8       __imp___ctime64            004321f8     msvcrt:MSVCR100.dll
 0002:000001fc       __imp__setvbuf             004321fc     msvcrt:MSVCR100.dll
 0002:00000200       __imp__atoi                00432200     msvcrt:MSVCR100.dll
 0002:00000204       __imp__fseek               00432204     msvcrt:MSVCR100.dll
 0002:00000208       __imp__ferror              00432208     msvcrt:MSVCR100.dll
 0002:0000020c       __imp__fclose              0043220c     msvcrt:MSVCR100.dll
 0002:00000210       __imp__ldiv                00432210     msvcrt:MSVCR100.dll
 0002:00000214       __imp_??_V@YAXPAX@Z        00432214     msvcrt:MSVCR100.dll
 0002:00000218       __imp__fopen               00432218     msvcrt:MSVCR100.dll
 0002:0000021c       __imp_??_U@YAPAXI@Z        0043221c     msvcrt:MSVCR100.dll
 0002:00000220       __imp_??2@YAPAXI@Z         00432220     msvcrt:MSVCR100.dll
 0002:00000224       __imp__fwrite              00432224     msvcrt:MSVCR100.dll
 0002:00000228       __imp_??3@YAXPAX@Z         00432228     msvcrt:MSVCR100.dll
 0002:0000022c       __imp__fread               0043222c     msvcrt:MSVCR100.dll
 0002:00000230       __imp__printf              00432230     msvcrt:MSVCR100.dll
 0002:00000234       __imp_??1exception@std@@UAE@XZ 00432234     msvcrt:MSVCR100.dll
 0002:00000238       __imp_??0exception@std@@QAE@ABQBD@Z 00432238     msvcrt:MSVCR100.dll
 0002:0000023c       __imp_??0exception@std@@QAE@ABV01@@Z 0043223c     msvcrt:MSVCR100.dll
 0002:00000240       __imp__memmove             00432240     msvcrt:MSVCR100.dll
 0002:00000244       __imp_?what@exception@std@@UBEPBDXZ 00432244     msvcrt:MSVCR100.dll
 0002:00000248       \177MSVCR100_NULL_THUNK_DATA 00432248     msvcrt:MSVCR100.dll
 0002:0000024c       __imp__ClipCursor@4        0043224c     user32:USER32.dll
 0002:00000250       __imp__GetClipCursor@4     00432250     user32:USER32.dll
 0002:00000254       __imp__SetCursor@4         00432254     user32:USER32.dll
 0002:00000258       __imp__LoadCursorA@8       00432258     user32:USER32.dll
 0002:0000025c       __imp__GetCursor@0         0043225c     user32:USER32.dll
 0002:00000260       __imp__ShowCursor@4        00432260     user32:USER32.dll
 0002:00000264       __imp__GetCursorPos@4      00432264     user32:USER32.dll
 0002:00000268       __imp__SetCursorPos@8      00432268     user32:USER32.dll
 0002:0000026c       __imp__OpenClipboard@4     0043226c     user32:USER32.dll
 0002:00000270       __imp__EmptyClipboard@0    00432270     user32:USER32.dll
 0002:00000274       __imp__SetClipboardData@8  00432274     user32:USER32.dll
 0002:00000278       __imp__CloseClipboard@0    00432278     user32:USER32.dll
 0002:0000027c       \177USER32_NULL_THUNK_DATA 0043227c     user32:USER32.dll
 0002:00000280       ___xc_a                    00432280     msvcrt:cinitexe.obj
 0002:00000290       ___xc_z                    00432290     msvcrt:cinitexe.obj
 0002:00000294       ___xi_a                    00432294     msvcrt:cinitexe.obj
 0002:000002a4       ___xi_z                    004322a4     msvcrt:cinitexe.obj
 0002:000002d0       ??_7type_info@@6B@         004322d0     msvcrt:ti_inst.obj
 0002:000002dc       __real@3c23d70a            004322dc     Detour:DetourNavMesh.obj
 0002:000002e4       ??_7bad_alloc@std@@6B@     004322e4     g3dlite:Vector3.obj
 0002:000002ec       ?EPSILON@Matrix3@G3D@@2MB  004322ec     g3dlite:Matrix3.obj
 0002:000002f0       ?ms_fSvdEpsilon@Matrix3@G3D@@1MB 004322f0     g3dlite:Matrix3.obj
 0002:000002f4       ?ms_iSvdMaxIterations@Matrix3@G3D@@1HB 004322f4     g3dlite:Matrix3.obj
 0002:000002fc       ??_7MemoryManager@G3D@@6B@ 004322fc     g3dlite:MemoryManager.obj
 0002:00000310       ??_7ReferenceCountedObject@G3D@@6B@ 00432310     g3dlite:ReferenceCount.obj
 0002:00000314       ??_C@_0BE@POFMNNMB@G3D?5?$CFd?4?$CF02d?5beta?5?$CFd?$AA@ 00432314     g3dlite:System.obj
 0002:00000328       ??_C@_00CNPNBAHC@?$AA@     00432328     g3dlite:System.obj
 0002:0000032c       ??_C@_07LDLFNPGN@Windows?$AA@ 0043232c     g3dlite:System.obj
 0002:00000334       ??_C@_0CG@IAGFPFME@Windows?5?$CFd?4?$CFd?5build?5?$CFd?5Platform?5@ 00432334     g3dlite:System.obj
 0002:0000035c       ??_C@_0BJ@LAGHNKCG@?$CFd?5x?5?$CFd?9bit?5?$CFs?5processor?$AA@ 0043235c     g3dlite:System.obj
 0002:00000378       __real@41f0000000000000    00432378     g3dlite:System.obj
 0002:00000380       ??_C@_07NBCGADJA@Unknown?$AA@ 00432380     g3dlite:System.obj
 0002:00000388       ??_C@_08IHFBEGJL@Power?5PC?$AA@ 00432388     g3dlite:System.obj
 0002:00000394       ??_C@_05IHOGHNDL@Alpha?$AA@ 00432394     g3dlite:System.obj
 0002:0000039c       ??_C@_04ICIIKDIK@MIPS?$AA@ 0043239c     g3dlite:System.obj
 0002:000003a4       ??_C@_05CDGBNGHP@Intel?$AA@ 004323a4     g3dlite:System.obj
 0002:000003b0       ??_C@_0EC@FDBDLDND@HKEY_LOCAL_MACHINE?2HARDWARE?2DESC@ 004323b0     g3dlite:System.obj
 0002:000003f4       ??_C@_04LNBIJLKI@?$HOMHz?$AA@ 004323f4     g3dlite:System.obj
 0002:000003fc       ??_C@_0O@KIDNHHKL@AMD?5Processor?$AA@ 004323fc     g3dlite:System.obj
 0002:0000040c       ??_C@_0BA@FHPGPBHL@Cyrix?5Processor?$AA@ 0043240c     g3dlite:System.obj
 0002:0000041c       ??_C@_0BA@BBEAPPMM@Intel?5Processor?$AA@ 0043241c     g3dlite:System.obj
 0002:0000042c       ??_C@_0BJ@EKDPJDHL@Unknown?5Processor?5Vendor?$AA@ 0043242c     g3dlite:System.obj
 0002:00000448       ??_C@_0O@MGDGCKO@Uninitialized?$AA@ 00432448     g3dlite:System.obj
 0002:00000458       ??_C@_0CC@JAAJHGEB@?$CFs?$CFs?$CFsExpression?3?5?$CFs?$CFs?$CFs?3?$CFd?$CFs?$CFs?$CF@ 00432458     g3dlite:debugAssert.obj
 0002:0000047c       ??_C@_02PCIJFNDE@?$AN?6?$AA@ 0043247c     g3dlite:debugAssert.obj
 0002:00000480       ??_C@_03NLJIHOMM@?5?9?5?$AA@ 00432480     g3dlite:debugAssert.obj
 0002:00000484       ??_C@_0BM@FDJGAJNI@Last?5Error?5?$CI0x?$CF08X?$CJ?3?5?$CFs?$AN?6?$AN?6?$AA@ 00432484     g3dlite:debugAssert.obj
 0002:000004a0       ??_C@_0CA@GHKGPAE@Last?5error?5code?5does?5not?5exist?4?$AA@ 004324a0     g3dlite:debugAssert.obj
 0002:000004c0       ??_C@_0BO@BKIFMOCD@?6?$CK?$CK?$CK?$CK?$CK?$CK?$CK?$CK?$CK?$CK?$CK?$CK?$CK?$CK?$CK?$CK?$CK?$CK?$CK?$CK?$CK?$CK?$CK?$CK?$CK?$CK?6?6?$AA@ 004324c0     g3dlite:debugAssert.obj
 0002:000004e0       ??_C@_04EINJHBMM@?6?$CFs?6?$AA@ 004324e0     g3dlite:debugAssert.obj
 0002:000004e8       ??_C@_0BC@JFFCEHCN@Assertion?5Failure?$AA@ 004324e8     g3dlite:debugAssert.obj
 0002:000004fc       ??_C@_05GCIPIGEI@Debug?$AA@ 004324fc     g3dlite:debugAssert.obj
 0002:00000504       ??_C@_06KMEJCCGM@Ignore?$AA@ 00432504     g3dlite:debugAssert.obj
 0002:0000050c       ??_C@_04LBABLPF@Exit?$AA@  0043250c     g3dlite:debugAssert.obj
 0002:00000514       ??_C@_05NAOIJFC@Error?$AA@ 00432514     g3dlite:debugAssert.obj
 0002:0000051c       ??_C@_03BMLMMEDG@?$CC?4?6?$AA@ 0043251c     g3dlite:debugAssert.obj
 0002:00000520       ??_C@_0II@CPJOBOPJ@An?5internal?5error?5has?5occured?5in@ 00432520     g3dlite:debugAssert.obj
 0002:000005a8       ??_C@_0P@HBKCJIG@Critical?5Error?$AA@ 004325a8     g3dlite:debugAssert.obj
 0002:000005b8       ??_C@_02PNHBFOHM@Ok?$AA@   004325b8     g3dlite:debugAssert.obj
 0002:000005bb       ?NO_COPY@BinaryInput@G3D@@2_NB 004325bb     g3dlite:BinaryInput.obj
 0002:000005c0       ??_7?$Table@V?$basic_string@DU?$char_traits@D@std@@V?$allocator@D@2@@std@@_NU?$HashTrait@V?$basic_string@DU?$char_traits@D@std@@V?$allocator@D@2@@std@@@@U?$EqualsTrait@V?$basic_string@DU?$char_traits@D@std@@V?$allocator@D@2@@std@@@@@G3D@@6B@ 004325c0     g3dlite:Any.obj
 0002:000005c8       ??_7?$Set@V?$basic_string@DU?$char_traits@D@std@@V?$allocator@D@2@@std@@U?$HashTrait@V?$basic_string@DU?$char_traits@D@std@@V?$allocator@D@2@@std@@@@U?$EqualsTrait@V?$basic_string@DU?$char_traits@D@std@@V?$allocator@D@2@@std@@@@@G3D@@6B@ 004325c8     g3dlite:Any.obj
 0002:000005cc       ??_C@_01LFCBOECM@?4?$AA@   004325cc     g3dlite:fileutils.obj
 0002:000005d0       ??_C@_0BG@FCDJGCJL@HKEY_PERFORMANCE_TEXT?$AA@ 004325d0     g3dlite:RegistryUtil.obj
 0002:000005e8       ??_C@_0BJ@PLBOABMK@HKEY_PERFORMANCE_NLSTEXT?$AA@ 004325e8     g3dlite:RegistryUtil.obj
 0002:00000604       ??_C@_0BG@IDBEHNDO@HKEY_PERFORMANCE_DATA?$AA@ 00432604     g3dlite:RegistryUtil.obj
 0002:0000061c       ??_C@_0BD@GIIFIKDM@HKEY_LOCAL_MACHINE?$AA@ 0043261c     g3dlite:RegistryUtil.obj
 0002:00000630       ??_C@_0BC@GMMMKLBI@HKEY_CURRENT_USER?$AA@ 00432630     g3dlite:RegistryUtil.obj
 0002:00000644       ??_C@_0BE@NLNNHLLF@HKEY_CURRENT_CONFIG?$AA@ 00432644     g3dlite:RegistryUtil.obj
 0002:00000658       ??_C@_0BC@JBJOLKMF@HKEY_CLASSES_ROOT?$AA@ 00432658     g3dlite:RegistryUtil.obj
 0002:0000066c       ??_C@_0BI@KABOKJNK@?6?5?5?5?5?$CD?$CD?$CD?5?5?5?5?$CFs?5?5?5?5?$CD?$CD?$CD?6?6?$AA@ 0043266c     g3dlite:Log.obj
 0002:00000684       ??_C@_0DH@DMLJMDKI@________________________________@ 00432684     g3dlite:Log.obj
 0002:000006bc       ??_C@_03OFAPEBGM@?$CFs?6?$AA@ 004326bc     g3dlite:Log.obj
 0002:000006c0       ??_C@_0BB@KLJKLBGO@Closing?5log?5file?$AA@ 004326c0     g3dlite:Log.obj
 0002:000006d4       ??_C@_08NKPDJDJD@Shutdown?$AA@ 004326d4     g3dlite:Log.obj
 0002:000006e4       ??_7Log@G3D@@6B@           004326e4     g3dlite:Log.obj
 0002:000006e8       ??_C@_0L@GIFIENKG@Start?3?5?$CFs?6?$AA@ 004326e8     g3dlite:Log.obj
 0002:000006f4       ??_C@_0BB@EHKPAFEE@Application?5Log?6?$AA@ 004326f4     g3dlite:Log.obj
 0002:00000708       ??_C@_04JKHNIKCB@TEMP?$AA@ 00432708     g3dlite:Log.obj
 0002:00000710       ??_C@_01NOFIACDB@w?$AA@    00432710     g3dlite:Log.obj
 0002:00000714       ??_C@_07POILLFDI@log?4txt?$AA@ 00432714     g3dlite:Log.obj
 0002:0000071c       ??_C@_0BC@MHHJONOK@?6Press?5any?5key?4?4?4?$AA@ 0043271c     g3dlite:prompt.obj
 0002:00000730       ??_C@_0BL@IAIKBHGC@?6Press?5any?5key?5for?5?8?$CFs?8?4?4?4?$AA@ 00432730     g3dlite:prompt.obj
 0002:0000074c       ??_C@_0BM@FBPMNJOM@?8?$CFd?8?5is?5not?5a?5valid?5choice?4?$AA@ 0043274c     g3dlite:prompt.obj
 0002:00000768       ??_C@_02DPKJAMEF@?$CFd?$AA@ 00432768     g3dlite:prompt.obj
 0002:0000076c       ??_C@_03KHHCMLP@?6?$DO?5?$AA@ 0043276c     g3dlite:prompt.obj
 0002:00000770       ??_C@_0L@HACJPMBO@?5?5?$CI?$CFd?$CJ?5?$CFs?6?$AA@ 00432770     g3dlite:prompt.obj
 0002:0000077c       ??_C@_0L@BPECDADG@?5?5?$CI?$CFd?$CJ?5?$CFs?5?$AA@ 0043277c     g3dlite:prompt.obj
 0002:00000788       ??_C@_0BM@EKNOMKBL@Choose?5an?5option?5by?5number?3?$AA@ 00432788     g3dlite:prompt.obj
 0002:000007a4       ??_C@_0DG@OJDNMAKF@?6_______________________________@ 004327a4     g3dlite:prompt.obj
 0002:00003088       _deflate_copyright         00435088     zlib:deflate.obj
 0002:00003140       ??_C@_0BF@CJFPCCEG@incompatible?5version?$AA@ 00435140     zlib:zutil.obj
 0002:00003158       ??_C@_0N@DFPGLBGC@buffer?5error?$AA@ 00435158     zlib:zutil.obj
 0002:00003168       ??_C@_0BE@OGGJBMCE@insufficient?5memory?$AA@ 00435168     zlib:zutil.obj
 0002:0000317c       ??_C@_0L@HAHMBNLP@data?5error?$AA@ 0043517c     zlib:zutil.obj
 0002:00003188       ??_C@_0N@MKKNPMJD@stream?5error?$AA@ 00435188     zlib:zutil.obj
 0002:00003198       ??_C@_0L@KIJFAKBJ@file?5error?$AA@ 00435198     zlib:zutil.obj
 0002:000031a4       ??_C@_0L@FNAOCBOG@stream?5end?$AA@ 004351a4     zlib:zutil.obj
 0002:000031b0       ??_C@_0BA@MOKMMFOD@need?5dictionary?$AA@ 004351b0     zlib:zutil.obj
 0002:000031c0       _z_errmsg                  004351c0     zlib:zutil.obj
 0002:000031e8       _inflate_copyright         004351e8     zlib:inftrees.obj
 0002:00003960       __dist_code                00435960     zlib:trees.obj
 0002:00003b60       __length_code              00435b60     zlib:trees.obj
 0002:00003d50       ??_C@_0BD@OLBABOEK@vector?$DMT?$DO?5too?5long?$AA@ 00435d50     BIH.obj
 0002:00003d9c       ??_C@_01IDAFKMJL@_?$AA@    00435d9c     MapTree.obj
 0002:00003da0       ??_C@_07FOMIPKEH@?4vmtile?$AA@ 00435da0     MapTree.obj
 0002:00003da8       ??_C@_01KMDKNFGN@?1?$AA@   00435da8     MapTree.obj
 0002:00003dac       ??_C@_02JDPG@rb?$AA@       00435dac     MapTree.obj
 0002:00003db0       ??_C@_04OHPEDIPN@NODE?$AA@ 00435db0     MapTree.obj
 0002:00003db8       ??_C@_04GJPBDKPB@GOBJ?$AA@ 00435db8     MapTree.obj
 0002:00003dc0       ??_C@_06PONDCDME@ERROR?3?$AA@ 00435dc0     MapTree.obj
 0002:00003dc8       ??_C@_0EI@DINFFPBP@StaticMapTree?3?3InitMap?$CI?$CJ?5could?5n@ 00435dc8     MapTree.obj
 0002:00003e10       ??_C@_01EEMJAFIK@?6?$AA@   00435e10     MapTree.obj
 0002:00003e18       ??_C@_0EF@DNMIMELA@StaticMapTree?3?3LoadMapTile?$CI?$CJ?3?5Tr@ 00435e18     MapTree.obj
 0002:00003e60       ??_C@_0EM@NPOJDLPF@StaticMapTree?3?3LoadMapTile?$CI?$CJ?5cou@ 00435e60     MapTree.obj
 0002:00003eb0       ??_C@_0FD@GALOIBBM@StaticMapTree?3?3UnloadMapTile?$CI?$CJ?3?5@ 00435eb0     MapTree.obj
 0002:00003f04       ??_C@_0DD@KCKHGGOB@Trying?5to?5unload?5non?9referenced?5@ 00435f04     MapTree.obj
 0002:00003f38       ??_C@_0BA@JFNIOLAK@string?5too?5long?$AA@ 00435f38     MapTree.obj
 0002:00003f48       ??_C@_0BI@CFPLBAOH@invalid?5string?5position?$AA@ 00435f48     MapTree.obj
 0002:00003f60       ??_C@_0BB@MOGOBHAF@list?$DMT?$DO?5too?5long?$AA@ 00435f60     MapTree.obj
 0002:00003f7c       ??_7?$basic_stringbuf@DU?$char_traits@D@std@@V?$allocator@D@2@@std@@6B@ 00435f7c     MapTree.obj
 0002:00003fbc       ??_7?$basic_stringstream@DU?$char_traits@D@std@@V?$allocator@D@2@@std@@6B@ 00435fbc     MapTree.obj
 0002:00003fc0       ??_8?$basic_stringstream@DU?$char_traits@D@std@@V?$allocator@D@2@@std@@7B?$basic_istream@DU?$char_traits@D@std@@@1@@ 00435fc0     MapTree.obj
 0002:00003fc8       ??_8?$basic_stringstream@DU?$char_traits@D@std@@V?$allocator@D@2@@std@@7B?$basic_ostream@DU?$char_traits@D@std@@@1@@ 00435fc8     MapTree.obj
 0002:00003fd0       ??_C@_0BK@CPLBOCOP@Error?5reading?5ModelSpawn?$CB?$AA@ 00435fd0     ModelInstance.obj
 0002:00003fec       ??_C@_0CO@HCJLEEIP@Error?5reading?5ModelSpawn?0?5file?5n@ 00435fec     ModelInstance.obj
 0002:0000401c       ??_C@_0CJ@IAHHMDFO@Error?5reading?5name?5string?5of?5Mod@ 0043601c     ModelInstance.obj
 0002:00004048       ??_C@_07NGABBBFG@?4vmtree?$AA@ 00436048     TileAssembler.obj
 0002:00004050       ??_C@_02GMLFBBN@wb?$AA@    00436050     TileAssembler.obj
 0002:00004054       ??_C@_04JDKLPIAI@VERT?$AA@ 00436054     TileAssembler.obj
 0002:0000405c       ??_C@_04OIHAEHIL@LIQU?$AA@ 0043605c     TileAssembler.obj
 0002:00004064       ??_C@_04KLBCEJNM@?4vmo?$AA@ 00436064     TileAssembler.obj
 0002:0000406c       ??_C@_0BM@PAPJHAGI@invalid?5map?1set?$DMT?$DO?5iterator?$AA@ 0043606c     TileAssembler.obj
 0002:00004088       ??_C@_0BE@JONHPENG@map?1set?$DMT?$DO?5too?5long?$AA@ 00436088     TileAssembler.obj
 0002:0000409c       ??_C@_0CJ@FLMBBAEI@VMapManager2?3?5could?5not?5load?5?8?$CFs@ 0043609c     VMapManager2.obj
 0002:000040c8       ??_C@_0DF@BKKPBKNI@VMapManager2?3?5trying?5to?5unload?5n@ 004360c8     VMapManager2.obj
 0002:00004104       ??_7IVMapManager@VMAP@@6B@ 00436104     VMapManager2.obj
 0002:00004138       ??_7VMapManager2@VMAP@@6B@ 00436138     VMapManager2.obj
 0002:0000416c       ??_C@_04KPNGCBMH@TRIM?$AA@ 0043616c     WorldModel.obj
 0002:00004174       ??_C@_04OPEIHHOO@MBIH?$AA@ 00436174     WorldModel.obj
 0002:0000417c       ??_C@_04DFEDNLCF@WMOD?$AA@ 0043617c     WorldModel.obj
 0002:00004184       ??_C@_04FFKDEMKH@GMOD?$AA@ 00436184     WorldModel.obj
 0002:0000418c       ??_C@_04KFPIGPEP@GBIH?$AA@ 0043618c     WorldModel.obj
 0002:00004194       ??_C@_05LAPONLG@false?$AA@ 00436194     generator.obj
 0002:0000419c       ??_C@_04LOAJBDKD@true?$AA@ 0043619c     generator.obj
 0002:000041a4       ??_C@_01NBENCBCI@?$CK?$AA@ 004361a4     generator.obj
 0002:000041a8       ??_C@_04ILAGGJBN@maps?$AA@ 004361a8     generator.obj
 0002:000041b0       ??_C@_0CN@JLOFDFMF@?8maps?8?5directory?5is?5empty?5or?5doe@ 004361b0     generator.obj
 0002:000041e0       ??_C@_08ECPFNCKM@?$CK?4vmtree?$AA@ 004361e0     generator.obj
 0002:000041ec       ??_C@_05CBJNNBHP@vmaps?$AA@ 004361ec     generator.obj
 0002:000041f4       ??_C@_0CO@HOLFCOCB@?8vmaps?8?5directory?5is?5empty?5or?5do@ 004361f4     generator.obj
 0002:00004224       ??_C@_05EIIMCDCH@mmaps?$AA@ 00436224     generator.obj
 0002:0000422c       ??_C@_0CC@HMDEJDJF@?8mmaps?8?5directory?5does?5not?5exist@ 0043622c     generator.obj
 0002:00004250       ??_C@_06NKCFPFEA@meshes?$AA@ 00436250     generator.obj
 0002:00004258       ??_C@_0EH@NKCIOEGK@?8meshes?8?5directory?5does?5not?5exis@ 00436258     generator.obj
 0002:000042a0       ??_C@_0L@BAIJCOMA@?9?9maxAngle?$AA@ 004362a0     generator.obj
 0002:000042ac       ??_C@_0DA@BIMNJDEL@invalid?5option?5for?5?8?9?9maxAngle?8?0@ 004362ac     generator.obj
 0002:000042dc       ??_C@_06GEPADNBF@?9?9tile?$AA@ 004362dc     generator.obj
 0002:000042e4       ??_C@_01IHBHIGKO@?0?$AA@   004362e4     generator.obj
 0002:000042e8       ??_C@_01GBGANLPD@0?$AA@    004362e8     generator.obj
 0002:000042ec       ??_C@_0BG@MDMHKODI@invalid?5tile?5coords?4?6?$AA@ 004362ec     generator.obj
 0002:00004304       ??_C@_0N@OCIEKDLI@?9?9skipLiquid?$AA@ 00436304     generator.obj
 0002:00004314       ??_C@_0DC@DHGEKDFB@invalid?5option?5for?5?8?9?9skipLiquid@ 00436314     generator.obj
 0002:00004348       ??_C@_0BB@EPHMODDK@?9?9skipContinents?$AA@ 00436348     generator.obj
 0002:0000435c       ??_C@_0DG@OPHDHDDL@invalid?5option?5for?5?8?9?9skipContin@ 0043635c     generator.obj
 0002:00004394       ??_C@_0P@MAPLNNNH@?9?9skipJunkMaps?$AA@ 00436394     generator.obj
 0002:000043a4       ??_C@_0DE@KPOHIPOH@invalid?5option?5for?5?8?9?9skipJunkMa@ 004363a4     generator.obj
 0002:000043d8       ??_C@_0BE@HEJJHPDF@?9?9skipBattlegrounds?$AA@ 004363d8     generator.obj
 0002:000043ec       ??_C@_0DJ@CEFDKDOC@invalid?5option?5for?5?8?9?9skipBattle@ 004363ec     generator.obj
 0002:00004428       ??_C@_0O@IIPPFKHA@?9?9debugOutput?$AA@ 00436428     generator.obj
 0002:00004438       ??_C@_0DI@HPECOGKM@invalid?5option?5for?5?8?9?9debugOutpu@ 00436438     generator.obj
 0002:00004470       ??_C@_08KDGAKKKD@?9?9silent?$AA@ 00436470     generator.obj
 0002:0000447c       ??_C@_0O@DCIALDDO@?9?9bigBaseUnit?$AA@ 0043647c     generator.obj
 0002:0000448c       ??_C@_0DJ@OCBCLNGA@invalid?5option?5for?5?8?9?9bigBaseUni@ 0043648c     generator.obj
 0002:000044c8       ??_C@_0BA@JKBENNNB@invalid?5map?5id?6?$AA@ 004364c8     generator.obj
 0002:000044d8       ??_C@_02DKCKIIND@?$CFs?$AA@ 004364d8     generator.obj
 0002:000044dc       ??_C@_0CG@MPNIGDJD@You?5have?5specified?5invalid?5param@ 004364dc     generator.obj
 0002:00004508       ??_C@_0EH@CJKPMGJB@You?5have?5specifed?5debug?5output?0?5@ 00436508     generator.obj
 0002:00004550       ??_C@_0CP@BIEMBNKN@This?5will?5generate?5debug?5output?5@ 00436550     generator.obj
 0002:00004580       ??_C@_0CK@BLCPFBJF@Are?5you?5sure?5you?5want?5to?5continu@ 00436580     generator.obj
 0002:000045ac       ??_C@_0BK@CGOEPOJK@Press?5any?5key?5to?5close?4?4?4?$AA@ 004365ac     generator.obj
 0002:000045c8       ??_C@_0BL@EODPJKDN@Movemap?5build?5is?5complete?$CB?$AA@ 004365c8     generator.obj
 0002:000045e4       ??_C@_0O@BMMGOGPO@?$FL?$CF02u?0?$CF02u?$FN?3?5?$AA@ 004365e4     MapBuilder.obj
 0002:000045f4       ??_C@_0DC@BLJHCIOF@?$CFsWriting?5debug?5output?4?4?4?5?5?5?5?5?5?5@ 004365f4     MapBuilder.obj
 0002:00004628       ??_C@_0BF@OLLLKNKA@meshes?1?$CF03u?$CF02i?$CF02i?4?$AA@ 00436628     MapBuilder.obj
 0002:00004640       ??_C@_02HFNNHAFE@hf?$AA@   00436640     MapBuilder.obj
 0002:00004644       ??_C@_0CC@NIFDPAK@?$CFsFailed?5to?5open?5?$CFs?5for?5writing?$CB@ 00436644     MapBuilder.obj
 0002:00004668       ??_C@_03ICELCOLH@chf?$AA@  00436668     MapBuilder.obj
 0002:0000466c       ??_C@_02EODNHJKB@cs?$AA@   0043666c     MapBuilder.obj
 0002:00004670       ??_C@_05NDNGNAPG@pmesh?$AA@ 00436670     MapBuilder.obj
 0002:00004678       ??_C@_05ELJBJAHL@dmesh?$AA@ 00436678     MapBuilder.obj
 0002:00004680       ??_C@_0BF@CNOJOOKF@Discovering?5maps?4?4?4?5?$AA@ 00436680     MapBuilder.obj
 0002:00004698       ??_C@_0L@JGAJGHPM@found?5?$CFu?4?6?$AA@ 00436698     MapBuilder.obj
 0002:000046a4       ??_C@_0BG@MGOCCJKC@Discovering?5tiles?4?4?4?5?$AA@ 004366a4     MapBuilder.obj
 0002:000046bc       ??_C@_0N@DINBMGLC@?$CF03u?$CK?4vmtile?$AA@ 004366bc     MapBuilder.obj
 0002:000046cc       ??_C@_05GHLCEDID@?$CF03u?$CK?$AA@ 004366cc     MapBuilder.obj
 0002:000046d4       ??_C@_0M@EOHCFPNK@found?5?$CFu?4?6?6?$AA@ 004366d4     MapBuilder.obj
 0002:000046e0       ??_C@_0BE@BJJKCBAN@Building?5map?5?$CF03u?3?6?$AA@ 004366e0     MapBuilder.obj
 0002:000046f4       ??_C@_0CI@CNIFOPJJ@Failed?5creating?5navmesh?$CB?5?5?5?5?5?5?5?5@ 004366f4     MapBuilder.obj
 0002:0000471c       ??_C@_0CJ@MDHJJHOH@Failed?$CB?5?5?5?5?5?5?5?5?5?5?5?5?5?5?5?5?5?5?5?5?5?5?5?5?5@ 0043671c     MapBuilder.obj
 0002:00004748       ??_C@_0CN@JALENHGN@We?5have?5?$CFu?5tiles?4?5?5?5?5?5?5?5?5?5?5?5?5?5?5?5@ 00436748     MapBuilder.obj
 0002:00004778       ??_C@_0DD@FCHHGIAO@?$CFsLoading?5heightmap?4?4?4?5?5?5?5?5?5?5?5?5?5@ 00436778     MapBuilder.obj
 0002:000047ac       ??_C@_0DD@HGGDDPLJ@?$CFsLoading?5models?4?4?4?5?5?5?5?5?5?5?5?5?5?5?5?5@ 004367ac     MapBuilder.obj
 0002:000047e0       ??_C@_0DE@DJKOMIHC@?$CFsAggregating?5mesh?5data?4?4?4?5?5?5?5?5?5@ 004367e0     MapBuilder.obj
 0002:00004814       ??_C@_0CL@CJCGOFJJ@Complete?$CB?5?5?5?5?5?5?5?5?5?5?5?5?5?5?5?5?5?5?5?5?5?5?5@ 00436814     MapBuilder.obj
 0002:00004840       ??_C@_0CF@HNJKLNNF@Building?5map?5?$CF03u?0?5tile?5?$FL?$CF02u?0?$CF0@ 00436840     MapBuilder.obj
 0002:00004868       ??_C@_0DE@DJAHHKJJ@?$CFsComplete?$CB?5?5?5?5?5?5?5?5?5?5?5?5?5?5?5?5?5?5?5?5?5@ 00436868     MapBuilder.obj
 0002:0000489c       ??_C@_03DDCJPEOM@?4m2?$AA@ 0043689c     MapBuilder.obj
 0002:000048a0       ??_C@_03LGELCAM@?4M2?$AA@  004368a0     MapBuilder.obj
 0002:000048a4       ??_C@_0CK@DDFPLIII@Creating?5navMesh?4?4?4?5?5?5?5?5?5?5?5?5?5?5?5?5@ 004368a4     MapBuilder.obj
 0002:000048d0       ??_C@_0CK@JNBLACAP@Failed?5creating?5navmesh?$CB?5?5?5?5?5?5?5?5@ 004368d0     MapBuilder.obj
 0002:000048fc       ??_C@_0BA@LBNMPFIE@mmaps?1?$CF03u?4mmap?$AA@ 004368fc     MapBuilder.obj
 0002:0000490c       ??_C@_0CA@JDOMJBON@Failed?5to?5open?5?$CFs?5for?5writing?$CB?6?$AA@ 0043690c     MapBuilder.obj
 0002:0000492c       ??_C@_0O@IEEEPNBL@?$FL?$CF02i?0?$CF02i?$FN?3?5?$AA@ 0043692c     MapBuilder.obj
 0002:0000493c       ??_C@_0DG@NDLIMKPL@?$CFs?5Building?5movemap?5tiles?4?4?4?5?5?5?5@ 0043693c     MapBuilder.obj
 0002:00004974       ??_C@_0CM@LIMHNMIH@?$CFsFailed?5building?5heightfield?$CB?5?5@ 00436974     MapBuilder.obj
 0002:000049a0       ??_C@_0CO@ODKJAHNI@?$CFsFailed?5compacting?5heightfield?$CB@ 004369a0     MapBuilder.obj
 0002:000049d0       ??_C@_0CM@HHBNOJJL@?$CFsFailed?5eroding?5area?$CB?5?5?5?5?5?5?5?5?5?5@ 004369d0     MapBuilder.obj
 0002:000049fc       ??_C@_0CM@FELHFFBM@?$CFsFailed?5building?5distance?5field@ 004369fc     MapBuilder.obj
 0002:00004a28       ??_C@_0CM@GIMGGNBJ@?$CFsFailed?5building?5regions?$CB?5?5?5?5?5?5@ 00436a28     MapBuilder.obj
 0002:00004a54       ??_C@_0CM@OFOLDHKF@?$CFsFailed?5building?5contours?$CB?5?5?5?5?5@ 00436a54     MapBuilder.obj
 0002:00004a80       ??_C@_0CM@EGCFAFEH@?$CFsFailed?5building?5polymesh?$CB?5?5?5?5?5@ 00436a80     MapBuilder.obj
 0002:00004aac       ??_C@_0CM@MFLCPDFF@?$CFsFailed?5building?5polymesh?5detai@ 00436aac     MapBuilder.obj
 0002:00004ad8       ??_C@_0CE@OGBMILJK@?$CFs?5alloc?5pmmerge?5FIALED?$CB?5?5?5?5?5?5?5?5@ 00436ad8     MapBuilder.obj
 0002:00004afc       ??_C@_0CE@NJCJELIK@?$CFs?5alloc?5dmmerge?5FIALED?$CB?5?5?5?5?5?5?5?5@ 00436afc     MapBuilder.obj
 0002:00004b20       ??_C@_0CI@FNPEBKJH@?$CFs?5alloc?5iv?4polyMesh?5FIALED?$CB?5?5?5?5@ 00436b20     MapBuilder.obj
 0002:00004b48       ??_C@_0CE@DECLFABA@?$CFs?5alloc?5m_dmesh?5FIALED?$CB?5?5?5?5?5?5?5?5@ 00436b48     MapBuilder.obj
 0002:00004b6c       ??_C@_0CN@LHDPKADL@?$CFs?5Invalid?5verts?9per?9polygon?5val@ 00436b6c     MapBuilder.obj
 0002:00004b9c       ??_C@_0CN@IBABGDOE@?$CFs?5Too?5many?5vertices?$CB?5?5?5?5?5?5?5?5?5?5?5@ 00436b9c     MapBuilder.obj
 0002:00004bcc       ??_C@_0DA@EIOBMID@?$CFs?5No?5polygons?5to?5build?5on?5tile?$CB@ 00436bcc     MapBuilder.obj
 0002:00004bfc       ??_C@_0CN@PLKLGLCH@?$CFs?5No?5detail?5mesh?5to?5build?5tile?$CB@ 00436bfc     MapBuilder.obj
 0002:00004c2c       ??_C@_0CN@DHDKNOKA@?$CFs?5Building?5navmesh?5tile?4?4?4?5?5?5?5?5@ 00436c2c     MapBuilder.obj
 0002:00004c5c       ??_C@_0CN@OOFEDBLE@?$CFs?5Failed?5building?5navmesh?5tile?$CB@ 00436c5c     MapBuilder.obj
 0002:00004c8c       ??_C@_0CO@PGGCIPDK@?$CFs?5Adding?5tile?5to?5navmesh?4?4?4?5?5?5?5@ 00436c8c     MapBuilder.obj
 0002:00004cbc       ??_C@_0CO@OKJFGBKM@?$CFs?5Failed?5adding?5tile?5to?5navmesh@ 00436cbc     MapBuilder.obj
 0002:00004cec       ??_C@_0BK@FGFHAIHD@mmaps?1?$CF03u?$CF02i?$CF02i?4mmtile?$AA@ 00436cec     MapBuilder.obj
 0002:00004d08       ??_C@_0CN@DPFBKCIA@?$CFs?5Writing?5to?5file?4?4?4?5?5?5?5?5?5?5?5?5?5?5@ 00436d08     MapBuilder.obj
 0002:00004d38       ??_C@_0BA@KHDHLJHA@meshes?1?$CF03u?4map?$AA@ 00436d38     MapBuilder.obj
 0002:00004d48       ??_C@_0BJ@DOHJLIGI@meshes?1?$CF03u?$CF02u?$CF02u?4mesh?$AA@ 00436d48     MapBuilder.obj
 0002:00004d64       ??_C@_0BD@ODHABNNE@meshes?1map?$CF03u?4obj?$AA@ 00436d64     MapBuilder.obj
 0002:00004d78       ??_C@_0M@BFAKBFND@v?5?$CFf?5?$CFf?5?$CFf?6?$AA@ 00436d78     MapBuilder.obj
 0002:00004d84       ??_C@_0M@DMKBMCBG@f?5?$CFi?5?$CFi?5?$CFi?6?$AA@ 00436d84     MapBuilder.obj
 0002:00004d90       ??_C@_0EA@NIKILKOP@C?3?2Users?2Anxo?2mangos?2mangos_335?2@ 00436d90     MapBuilder.obj
 0002:00004dd0       ??_C@_0CN@DLHCJOJO@Memory?5manager?5returned?5NULL?3?5ou@ 00436dd0     MapBuilder.obj
 0002:00004e00       ??_C@_04PJOLNDGD@data?$AA@ 00436e00     MapBuilder.obj
 0002:00004e0c       ??_7rcContext@@6B@         00436e0c     MapBuilder.obj
 0002:00004e28       ??_C@_04NIHLLNNC@v1?42?$AA@ 00436e28     TerrainBuilder.obj
 0002:00004e30       ??_C@_0BG@BOGPIAKH@maps?1?$CF03u?$CF02u?$CF02u?4map?$AA@ 00436e30     TerrainBuilder.obj
 0002:00004e48       ??_C@_0DI@LKMNJEBD@?$CFs?5is?5the?5wrong?5version?0?5please?5@ 00436e48     TerrainBuilder.obj
 0002:00004e80       ??_C@_0CN@HPMMFJFL@rcBuildContours?3?5Out?5of?5memory?5?8@ 00436e80     Recast:RecastContour.obj
 0002:00004eb0       ??_C@_0DH@EDAAIGNC@rcBuildContours?3?5Expanding?5max?5c@ 00436eb0     Recast:RecastContour.obj
 0002:00004ee8       ??_C@_0CN@KNOPFNDB@rcBuildContours?3?5Out?5of?5memory?5?8@ 00436ee8     Recast:RecastContour.obj
 0002:00004f18       ??_C@_0CO@JLFENFEL@rcBuildContours?3?5Out?5of?5memory?5?8@ 00436f18     Recast:RecastContour.obj
 0002:00004f48       ??_C@_0EB@NNCNLPBP@rcBuildContours?3?5Could?5not?5find?5@ 00436f48     Recast:RecastContour.obj
 0002:00004f8c       ??_C@_0DM@JLHALDLA@rcBuildContours?3?5Failed?5to?5find?5@ 00436f8c     Recast:RecastContour.obj
 0002:00004fc8       ??_C@_0DF@DDAJIFA@rcBuildContours?3?5Failed?5to?5merge@ 00436fc8     Recast:RecastContour.obj
 0002:00005000       ??_C@_0DK@HMANMLNE@rcBuildCompactHeightfield?3?5Out?5o@ 00437000     Recast:Recast.obj
 0002:0000503c       ??_C@_0DK@HELMONJH@rcBuildCompactHeightfield?3?5Out?5o@ 0043703c     Recast:Recast.obj
 0002:00005078       ??_C@_0DK@BKKBEIJO@rcBuildCompactHeightfield?3?5Out?5o@ 00437078     Recast:Recast.obj
 0002:000050b8       ??_C@_0EI@FJNBKBB@rcBuildCompactHeightfield?3?5Heigh@ 004370b8     Recast:Recast.obj
 0002:00005100       ??_C@_0DC@OAAGFKGB@filterSmallRegions?3?5Out?5of?5memor@ 00437100     Recast:RecastRegion.obj
 0002:00005134       ??_C@_0DA@JEAHFIBK@rcBuildDistanceField?3?5Out?5of?5mem@ 00437134     Recast:RecastRegion.obj
 0002:00005164       ??_C@_0DA@DEKJMNNE@rcBuildDistanceField?3?5Out?5of?5mem@ 00437164     Recast:RecastRegion.obj
 0002:00005194       ??_C@_0CK@MEAHGGHD@rcBuildRegions?3?5Out?5of?5memory?5?8t@ 00437194     Recast:RecastRegion.obj
 0002:000051c4       ??_C@_0CB@LAAMFPJL@addEdge?3?5Too?5many?5edges?5?$CI?$CFd?1?$CFd?$CJ?4@ 004371c4     Recast:RecastMeshDetail.obj
 0002:000051e8       ??_C@_0DE@BLOGECCH@delaunayHull?3?5Removing?5dangling?5@ 004371e8     Recast:RecastMeshDetail.obj
 0002:00005220       ??_C@_0EF@LDOEGGJG@buildPolyDetail?3?5Could?5not?5trian@ 00437220     Recast:RecastMeshDetail.obj
 0002:00005268       ??_C@_0ED@CFKDLOCO@rcBuildPolyMeshDetail?3?5Shrinking@ 00437268     Recast:RecastMeshDetail.obj
 0002:000052f8       ??_C@_0DE@INKNEFJG@rcBuildPolyMeshDetail?3?5Out?5of?5me@ 004372f8     Recast:RecastMeshDetail.obj
 0002:0000532c       ??_C@_0DC@KNIKKIHD@rcBuildPolyMeshDetail?3?5Out?5of?5me@ 0043732c     Recast:RecastMeshDetail.obj
 0002:00005360       ??_C@_0DF@PDKOHJKN@rcBuildPolyMeshDetail?3?5Out?5of?5me@ 00437360     Recast:RecastMeshDetail.obj
 0002:00005398       ??_C@_0DK@NCPKMHKI@rcBuildPolyMeshDetail?3?5Out?5of?5me@ 00437398     Recast:RecastMeshDetail.obj
 0002:000053d4       ??_C@_0DJ@EPDPPGKP@rcBuildPolyMeshDetail?3?5Out?5of?5me@ 004373d4     Recast:RecastMeshDetail.obj
 0002:00005410       ??_C@_0DI@PIKIJKAP@rcBuildPolyMeshDetail?3?5Out?5of?5me@ 00437410     Recast:RecastMeshDetail.obj
 0002:00005448       ??_C@_0DC@KKPLHLNL@rcBuildPolyMeshDetail?3?5Out?5of?5me@ 00437448     Recast:RecastMeshDetail.obj
 0002:0000547c       ??_C@_0DC@IEANFDFN@rcBuildPolyMeshDetail?3?5Out?5of?5me@ 0043747c     Recast:RecastMeshDetail.obj
 0002:000054b0       ??_C@_0DK@GHCAABPJ@rcBuildPolyMeshDetail?3?5Out?5of?5me@ 004374b0     Recast:RecastMeshDetail.obj
 0002:000054ec       ??_C@_0CN@BEHLLPDP@canRemoveVertex?3?5Out?5of?5memory?5?8@ 004374ec     Recast:RecastMesh.obj
 0002:0000551c       ??_C@_0CK@IOAOCBA@removeVertex?3?5Out?5of?5memory?5?8edg@ 0043751c     Recast:RecastMesh.obj
 0002:00005548       ??_C@_0CJ@MEHPLN@removeVertex?3?5Out?5of?5memory?5?8hol@ 00437548     Recast:RecastMesh.obj
 0002:00005574       ??_C@_0CJ@LHEFPFDN@removeVertex?3?5Out?5of?5memory?5?8hre@ 00437574     Recast:RecastMesh.obj
 0002:000055a0       ??_C@_0CK@IKPIPHAA@removeVertex?3?5Out?5of?5memory?5?8har@ 004375a0     Recast:RecastMesh.obj
 0002:000055cc       ??_C@_0CJ@FFEHKGLD@removeVertex?3?5Out?5of?5memory?5?8tri@ 004375cc     Recast:RecastMesh.obj
 0002:000055f8       ??_C@_0CL@BDNMMAMJ@removeVertex?3?5Out?5of?5memory?5?8tve@ 004375f8     Recast:RecastMesh.obj
 0002:00005624       ??_C@_0DC@OAIHHLAF@removeVertex?3?5triangulate?$CI?$CJ?5retu@ 00437624     Recast:RecastMesh.obj
 0002:00005658       ??_C@_0CK@MOOJLFPF@removeVertex?3?5Out?5of?5memory?5?8pol@ 00437658     Recast:RecastMesh.obj
 0002:00005684       ??_C@_0CK@BOHENGDJ@removeVertex?3?5Out?5of?5memory?5?8pre@ 00437684     Recast:RecastMesh.obj
 0002:000056b0       ??_C@_0CN@GJNOFLAJ@removeVertex?3?5Too?5many?5polygons?5@ 004376b0     Recast:RecastMesh.obj
 0002:000056e0       ??_C@_0CH@GJHGNJJA@rcBuildPolyMesh?3?5Too?5many?5vertic@ 004376e0     Recast:RecastMesh.obj
 0002:00005708       ??_C@_0DC@PALMAAAI@rcBuildPolyMesh?3?5Out?5of?5memory?5?8@ 00437708     Recast:RecastMesh.obj
 0002:0000573c       ??_C@_0DC@LDBAFDMJ@rcBuildPolyMesh?3?5Out?5of?5memory?5?8@ 0043773c     Recast:RecastMesh.obj
 0002:00005770       ??_C@_0DB@NNAGGPCH@rcBuildPolyMesh?3?5Out?5of?5memory?5?8@ 00437770     Recast:RecastMesh.obj
 0002:000057a4       ??_C@_0DC@HACDPBN@rcBuildPolyMesh?3?5Out?5of?5memory?5?8@ 004377a4     Recast:RecastMesh.obj
 0002:000057d8       ??_C@_0DA@HOJPIDJL@rcBuildPolyMesh?3?5Out?5of?5memory?5?8@ 004377d8     Recast:RecastMesh.obj
 0002:00005808       ??_C@_0DB@NCNLOCCJ@rcBuildPolyMesh?3?5Out?5of?5memory?5?8@ 00437808     Recast:RecastMesh.obj
 0002:0000583c       ??_C@_0CP@MKDKCEGA@rcBuildPolyMesh?3?5Out?5of?5memory?5?8@ 0043783c     Recast:RecastMesh.obj
 0002:0000586c       ??_C@_0CM@LPAGGBDF@rcBuildPolyMesh?3?5Out?5of?5memory?5?8@ 0043786c     Recast:RecastMesh.obj
 0002:00005898       ??_C@_0CN@MKNINCCH@rcBuildPolyMesh?3?5Out?5of?5memory?5?8@ 00437898     Recast:RecastMesh.obj
 0002:000058c8       ??_C@_0CP@NPOINCHP@rcBuildPolyMesh?3?5Bad?5triangulati@ 004378c8     Recast:RecastMesh.obj
 0002:000058f8       ??_C@_0DA@JMLBEHAJ@rcBuildPolyMesh?3?5Too?5many?5polygo@ 004378f8     Recast:RecastMesh.obj
 0002:00005928       ??_C@_0DC@JKOEGBKH@rcBuildPolyMesh?3?5Failed?5to?5remov@ 00437928     Recast:RecastMesh.obj
 0002:0000595c       ??_C@_0CD@OHIDPJGB@rcBuildPolyMesh?3?5Adjacency?5faile@ 0043795c     Recast:RecastMesh.obj
 0002:00005980       ??_C@_0DC@CCJPAEGC@rcBuildPolyMesh?3?5Out?5of?5memory?5?8@ 00437980     Recast:RecastMesh.obj
 0002:000059b8       ??_C@_0GA@ENEKAALH@rcMergePolyMeshes?3?5The?5resulting@ 004379b8     Recast:RecastMesh.obj
 0002:00005a18       ??_C@_0GA@ELEPGKAF@rcMergePolyMeshes?3?5The?5resulting@ 00437a18     Recast:RecastMesh.obj
 0002:00005a78       ??_C@_0DE@CFEIKJDA@rcMergePolyMeshes?3?5Out?5of?5memory@ 00437a78     Recast:RecastMesh.obj
 0002:00005aac       ??_C@_0DE@GGOEPKPB@rcMergePolyMeshes?3?5Out?5of?5memory@ 00437aac     Recast:RecastMesh.obj
 0002:00005ae0       ??_C@_0DD@EJOOLDAF@rcMergePolyMeshes?3?5Out?5of?5memory@ 00437ae0     Recast:RecastMesh.obj
 0002:00005b14       ??_C@_0DE@NCPGJGCF@rcMergePolyMeshes?3?5Out?5of?5memory@ 00437b14     Recast:RecastMesh.obj
 0002:00005b48       ??_C@_0DE@PHGLKNFK@rcMergePolyMeshes?3?5Out?5of?5memory@ 00437b48     Recast:RecastMesh.obj
 0002:00005b7c       ??_C@_0DC@PCHICFBC@rcMergePolyMeshes?3?5Out?5of?5memory@ 00437b7c     Recast:RecastMesh.obj
 0002:00005bb0       ??_C@_0DD@EGDDDOAL@rcMergePolyMeshes?3?5Out?5of?5memory@ 00437bb0     Recast:RecastMesh.obj
 0002:00005be4       ??_C@_0DA@CLHFAIGA@rcMergePolyMeshes?3?5Out?5of?5memory@ 00437be4     Recast:RecastMesh.obj
 0002:00005c14       ??_C@_0CF@HHMIFAFJ@rcMergePolyMeshes?3?5Adjacency?5fai@ 00437c14     Recast:RecastMesh.obj
 0002:00005c3c       ??_C@_0CO@GHLBLKHM@erodeWalkableArea?3?5Out?5of?5memory@ 00437c3c     Recast:RecastArea.obj
 0002:00005c70       __real@3ff0000000000000    00437c70      CIL library: CIL module
 0002:00005c78       __real@40efffe000000000    00437c78      CIL library: CIL module
 0002:00005c80       __real@3f800000            00437c80      CIL library: CIL module
 0002:00005c84       __real@00000000            00437c84      CIL library: CIL module
 0002:00005c88       __real@3fe0000000000000    00437c88      CIL library: CIL module
 0002:00005c90       __real@bff0000000000000    00437c90      CIL library: CIL module
 0002:00005c98       __real@42340000            00437c98      CIL library: CIL module
 0002:00005c9c       __real@42b40000            00437c9c      CIL library: CIL module
 0002:00005ca0       __real@4f800000            00437ca0      CIL library: CIL module
 0002:00005ca8       __real@4010aaaa00000000    00437ca8      CIL library: CIL module
 0002:00005cb0       __real@400921fb54442d28    00437cb0      CIL library: CIL module
 0002:00005cb8       __real@358637be            00437cb8      CIL library: CIL module
 0002:00005cc0       __real@0000000000000000    00437cc0      CIL library: CIL module
 0002:00005cc8       __real@7f7fffff            00437cc8      CIL library: CIL module
 0002:00005cd0       __real@3f847ae140000000    00437cd0      CIL library: CIL module
 0002:00005cd8       __real@3ff00068db8b8000    00437cd8      CIL library: CIL module
 0002:00005ce0       __real@bf1a36e2e0000000    00437ce0      CIL library: CIL module
 0002:00005ce8       __real@4080aaaaa0000000    00437ce8      CIL library: CIL module
 0002:00005cf0       __real@00800000            00437cf0      CIL library: CIL module
 0002:00005cf8       __real@40d0aaaaa0000000    00437cf8      CIL library: CIL module
 0002:00005d00       __real@bf800000            00437d00      CIL library: CIL module
 0002:00005d08       __real@47efffffe0000000    00437d08      CIL library: CIL module
 0002:00005d10       __real@3feff7ced9100000    00437d10      CIL library: CIL module
 0002:00005d18       __real@3ff0041893780000    00437d18      CIL library: CIL module
 0002:00005d20       __real@400921fb60000000    00437d20      CIL library: CIL module
 0002:00005d28       __real@4066800000000000    00437d28      CIL library: CIL module
 0002:00005d30       __real@3fb99999a0000000    00437d30      CIL library: CIL module
 0002:00005d38       __real@4000000000000000    00437d38      CIL library: CIL module
 0002:00005d40       __real@40000000            00437d40      CIL library: CIL module
 0002:00005d44       __real@3fc00000            00437d44      CIL library: CIL module
 0002:00005d48       __real@40400000            00437d48      CIL library: CIL module
 0002:00005d50       __real@c00921fb54442d28    00437d50      CIL library: CIL module
 0002:00005d58       __real@3ff8000000000000    00437d58      CIL library: CIL module
 0002:00005d60       __real@c07f400000000000    00437d60      CIL library: CIL module
 0002:00005d68       __real@4040000000000000    00437d68      CIL library: CIL module
 0002:00005d70       __real@406fe00000000000    00437d70      CIL library: CIL module
 0002:00005d78       __real@4010000000000000    00437d78      CIL library: CIL module
 0002:00005d80       __real@4050000000000000    00437d80      CIL library: CIL module
 0002:00005d88       __real@3e888872            00437d88      CIL library: CIL module
 0002:00005d8c       __real@3f088883            00437d8c      CIL library: CIL module
 0002:00005d90       __real@42700000            00437d90      CIL library: CIL module
 0002:00005d98       __real@3ddb7cdfe0000000    00437d98      CIL library: CIL module
 0002:00005da0       __real@c8435000            00437da0      CIL library: CIL module
 0002:00005da8       __load_config_used         00437da8     msvcrt:loadcfg.obj
 0002:00005e58       ??_R4type_info@@6B@        00437e58     msvcrt:ti_inst.obj
 0002:00005e6c       ??_R3type_info@@8          00437e6c     msvcrt:ti_inst.obj
 0002:00005e7c       ??_R2type_info@@8          00437e7c     msvcrt:ti_inst.obj
 0002:00005e84       ??_R1A@?0A@EA@type_info@@8 00437e84     msvcrt:ti_inst.obj
 0002:00005ea0       ??_R4MemoryManager@G3D@@6B@ 00437ea0     g3dlite:MemoryManager.obj
 0002:00005eb4       ??_R3MemoryManager@G3D@@8  00437eb4     g3dlite:MemoryManager.obj
 0002:00005ec4       ??_R2MemoryManager@G3D@@8  00437ec4     g3dlite:MemoryManager.obj
 0002:00005ed0       ??_R1A@?0A@EA@MemoryManager@G3D@@8 00437ed0     g3dlite:MemoryManager.obj
 0002:00005eec       ??_R1A@?0A@EA@ReferenceCountedObject@G3D@@8 00437eec     g3dlite:MemoryManager.obj
 0002:00005f08       ??_R3ReferenceCountedObject@G3D@@8 00437f08     g3dlite:MemoryManager.obj
 0002:00005f18       ??_R2ReferenceCountedObject@G3D@@8 00437f18     g3dlite:MemoryManager.obj
 0002:00005f20       ??_R4ReferenceCountedObject@G3D@@6B@ 00437f20     g3dlite:ReferenceCount.obj
 0002:00005f34       ??_R4?$Table@V?$basic_string@DU?$char_traits@D@std@@V?$allocator@D@2@@std@@_NU?$HashTrait@V?$basic_string@DU?$char_traits@D@std@@V?$allocator@D@2@@std@@@@U?$EqualsTrait@V?$basic_string@DU?$char_traits@D@std@@V?$allocator@D@2@@std@@@@@G3D@@6B@ 00437f34     g3dlite:Any.obj
 0002:00005f48       ??_R3?$Table@V?$basic_string@DU?$char_traits@D@std@@V?$allocator@D@2@@std@@_NU?$HashTrait@V?$basic_string@DU?$char_traits@D@std@@V?$allocator@D@2@@std@@@@U?$EqualsTrait@V?$basic_string@DU?$char_traits@D@std@@V?$allocator@D@2@@std@@@@@G3D@@8 00437f48     g3dlite:Any.obj
 0002:00005f58       ??_R2?$Table@V?$basic_string@DU?$char_traits@D@std@@V?$allocator@D@2@@std@@_NU?$HashTrait@V?$basic_string@DU?$char_traits@D@std@@V?$allocator@D@2@@std@@@@U?$EqualsTrait@V?$basic_string@DU?$char_traits@D@std@@V?$allocator@D@2@@std@@@@@G3D@@8 00437f58     g3dlite:Any.obj
 0002:00005f60       ??_R1A@?0A@EA@?$Table@V?$basic_string@DU?$char_traits@D@std@@V?$allocator@D@2@@std@@_NU?$HashTrait@V?$basic_string@DU?$char_traits@D@std@@V?$allocator@D@2@@std@@@@U?$EqualsTrait@V?$basic_string@DU?$char_traits@D@std@@V?$allocator@D@2@@std@@@@@G3D@@8 00437f60     g3dlite:Any.obj
 0002:00005f7c       ??_R4?$Set@V?$basic_string@DU?$char_traits@D@std@@V?$allocator@D@2@@std@@U?$HashTrait@V?$basic_string@DU?$char_traits@D@std@@V?$allocator@D@2@@std@@@@U?$EqualsTrait@V?$basic_string@DU?$char_traits@D@std@@V?$allocator@D@2@@std@@@@@G3D@@6B@ 00437f7c     g3dlite:Any.obj
 0002:00005f90       ??_R3?$Set@V?$basic_string@DU?$char_traits@D@std@@V?$allocator@D@2@@std@@U?$HashTrait@V?$basic_string@DU?$char_traits@D@std@@V?$allocator@D@2@@std@@@@U?$EqualsTrait@V?$basic_string@DU?$char_traits@D@std@@V?$allocator@D@2@@std@@@@@G3D@@8 00437f90     g3dlite:Any.obj
 0002:00005fa0       ??_R2?$Set@V?$basic_string@DU?$char_traits@D@std@@V?$allocator@D@2@@std@@U?$HashTrait@V?$basic_string@DU?$char_traits@D@std@@V?$allocator@D@2@@std@@@@U?$EqualsTrait@V?$basic_string@DU?$char_traits@D@std@@V?$allocator@D@2@@std@@@@@G3D@@8 00437fa0     g3dlite:Any.obj
 0002:00005fa8       ??_R1A@?0A@EA@?$Set@V?$basic_string@DU?$char_traits@D@std@@V?$allocator@D@2@@std@@U?$HashTrait@V?$basic_string@DU?$char_traits@D@std@@V?$allocator@D@2@@std@@@@U?$EqualsTrait@V?$basic_string@DU?$char_traits@D@std@@V?$allocator@D@2@@std@@@@@G3D@@8 00437fa8     g3dlite:Any.obj
 0002:00005fc4       ??_R4Log@G3D@@6B@          00437fc4     g3dlite:Log.obj
 0002:00005fd8       ??_R3Log@G3D@@8            00437fd8     g3dlite:Log.obj
 0002:00005fe8       ??_R2Log@G3D@@8            00437fe8     g3dlite:Log.obj
 0002:00005ff0       ??_R1A@?0A@EA@Log@G3D@@8   00437ff0     g3dlite:Log.obj
 0002:0000600c       ??_R4bad_alloc@std@@6B@    0043800c     BIH.obj
 0002:00006020       ??_R3bad_alloc@std@@8      00438020     BIH.obj
 0002:00006030       ??_R2bad_alloc@std@@8      00438030     BIH.obj
 0002:0000603c       ??_R1A@?0A@EA@exception@std@@8 0043803c     BIH.obj
 0002:00006058       ??_R3exception@std@@8      00438058     BIH.obj
 0002:00006068       ??_R2exception@std@@8      00438068     BIH.obj
 0002:00006070       ??_R1A@?0A@EA@bad_alloc@std@@8 00438070     BIH.obj
 0002:0000608c       ??_R4?$basic_stringstream@DU?$char_traits@D@std@@V?$allocator@D@2@@std@@6B@ 0043808c     MapTree.obj
 0002:000060a0       ??_R3?$basic_stringstream@DU?$char_traits@D@std@@V?$allocator@D@2@@std@@8 004380a0     MapTree.obj
 0002:000060b0       ??_R2?$basic_stringstream@DU?$char_traits@D@std@@V?$allocator@D@2@@std@@8 004380b0     MapTree.obj
 0002:000060dc       ??_R1A@?0A@EA@?$basic_iostream@DU?$char_traits@D@std@@@std@@8 004380dc     MapTree.obj
 0002:000060f8       ??_R3?$basic_iostream@DU?$char_traits@D@std@@@std@@8 004380f8     MapTree.obj
 0002:00006108       ??_R2?$basic_iostream@DU?$char_traits@D@std@@@std@@8 00438108     MapTree.obj
 0002:00006130       ??_R1BA@?0A@EA@?$basic_ostream@DU?$char_traits@D@std@@@std@@8 00438130     MapTree.obj
 0002:0000614c       ??_R3?$basic_ostream@DU?$char_traits@D@std@@@std@@8 0043814c     MapTree.obj
 0002:0000615c       ??_R2?$basic_ostream@DU?$char_traits@D@std@@@std@@8 0043815c     MapTree.obj
 0002:00006170       ??_R1A@?0A@EA@?$basic_ostream@DU?$char_traits@D@std@@@std@@8 00438170     MapTree.obj
 0002:0000618c       ??_R1A@?0A@EA@?$basic_istream@DU?$char_traits@D@std@@@std@@8 0043818c     MapTree.obj
 0002:000061a8       ??_R3?$basic_istream@DU?$char_traits@D@std@@@std@@8 004381a8     MapTree.obj
 0002:000061b8       ??_R2?$basic_istream@DU?$char_traits@D@std@@@std@@8 004381b8     MapTree.obj
 0002:000061cc       ??_R17A@3EA@?$_Iosb@H@std@@8 004381cc     MapTree.obj
 0002:000061e8       ??_R1A@A@3EA@ios_base@std@@8 004381e8     MapTree.obj
 0002:00006204       ??_R1A@A@3FA@?$basic_ios@DU?$char_traits@D@std@@@std@@8 00438204     MapTree.obj
 0002:00006220       ??_R3?$basic_ios@DU?$char_traits@D@std@@@std@@8 00438220     MapTree.obj
 0002:00006230       ??_R2?$basic_ios@DU?$char_traits@D@std@@@std@@8 00438230     MapTree.obj
 0002:00006240       ??_R1A@?0A@EA@ios_base@std@@8 00438240     MapTree.obj
 0002:0000625c       ??_R3ios_base@std@@8       0043825c     MapTree.obj
 0002:0000626c       ??_R2ios_base@std@@8       0043826c     MapTree.obj
 0002:00006278       ??_R17?0A@EA@?$_Iosb@H@std@@8 00438278     MapTree.obj
 0002:00006294       ??_R3?$_Iosb@H@std@@8      00438294     MapTree.obj
 0002:000062a4       ??_R2?$_Iosb@H@std@@8      004382a4     MapTree.obj
 0002:000062ac       ??_R1A@?0A@EA@?$_Iosb@H@std@@8 004382ac     MapTree.obj
 0002:000062c8       ??_R1A@?0A@EA@?$basic_ios@DU?$char_traits@D@std@@@std@@8 004382c8     MapTree.obj
 0002:000062e4       ??_R1A@?0A@EA@?$basic_stringstream@DU?$char_traits@D@std@@V?$allocator@D@2@@std@@8 004382e4     MapTree.obj
 0002:00006300       ??_R4?$basic_stringbuf@DU?$char_traits@D@std@@V?$allocator@D@2@@std@@6B@ 00438300     MapTree.obj
 0002:00006314       ??_R3?$basic_stringbuf@DU?$char_traits@D@std@@V?$allocator@D@2@@std@@8 00438314     MapTree.obj
 0002:00006324       ??_R2?$basic_stringbuf@DU?$char_traits@D@std@@V?$allocator@D@2@@std@@8 00438324     MapTree.obj
 0002:00006330       ??_R1A@?0A@EA@?$basic_streambuf@DU?$char_traits@D@std@@@std@@8 00438330     MapTree.obj
 0002:0000634c       ??_R3?$basic_streambuf@DU?$char_traits@D@std@@@std@@8 0043834c     MapTree.obj
 0002:0000635c       ??_R2?$basic_streambuf@DU?$char_traits@D@std@@@std@@8 0043835c     MapTree.obj
 0002:00006364       ??_R1A@?0A@EA@?$basic_stringbuf@DU?$char_traits@D@std@@V?$allocator@D@2@@std@@8 00438364     MapTree.obj
 0002:00006380       ??_R4VMapManager2@VMAP@@6B@ 00438380     VMapManager2.obj
 0002:00006394       ??_R3VMapManager2@VMAP@@8  00438394     VMapManager2.obj
 0002:000063a4       ??_R2VMapManager2@VMAP@@8  004383a4     VMapManager2.obj
 0002:000063b0       ??_R1A@?0A@EA@VMapManager2@VMAP@@8 004383b0     VMapManager2.obj
 0002:000063cc       ??_R4IVMapManager@VMAP@@6B@ 004383cc     VMapManager2.obj
 0002:000063e0       ??_R3IVMapManager@VMAP@@8  004383e0     VMapManager2.obj
 0002:000063f0       ??_R2IVMapManager@VMAP@@8  004383f0     VMapManager2.obj
 0002:000063f8       ??_R1A@?0A@EA@IVMapManager@VMAP@@8 004383f8     VMapManager2.obj
 0002:00006414       ??_R4rcContext@@6B@        00438414     MapBuilder.obj
 0002:00006428       ??_R3rcContext@@8          00438428     MapBuilder.obj
 0002:00006438       ??_R2rcContext@@8          00438438     MapBuilder.obj
 0002:00006440       ??_R1A@?0A@EA@rcContext@@8 00438440     MapBuilder.obj
 0002:00006460       ___safe_se_handler_table   00438460     <linker-defined>
 0002:000065e4       ___rtc_iaa                 004385e4     msvcrt:_initsect_.obj
 0002:000065e8       ___rtc_izz                 004385e8     msvcrt:_initsect_.obj
 0002:000065ec       ___rtc_taa                 004385ec     msvcrt:_initsect_.obj
 0002:000065f0       ___rtc_tzz                 004385f0     msvcrt:_initsect_.obj
 0002:00006c6c       __CT??_R0?AVexception@std@@@8??0exception@std@@QAE@ABV01@@Z12 00438c6c     BIH.obj
 0002:00006c88       __CT??_R0?AVbad_alloc@std@@@8??0bad_alloc@std@@QAE@ABV01@@Z12 00438c88     BIH.obj
 0002:00006ca4       __CTA2?AVbad_alloc@std@@   00438ca4     BIH.obj
 0002:00006cb0       __TI2?AVbad_alloc@std@@    00438cb0     BIH.obj
 0002:00008188       __IMPORT_DESCRIPTOR_MSVCR100 0043a188     msvcrt:MSVCR100.dll
 0002:0000819c       __IMPORT_DESCRIPTOR_KERNEL32 0043a19c     kernel32:KERNEL32.dll
 0002:000081b0       __IMPORT_DESCRIPTOR_MSVCP100 0043a1b0     MSVCPRT:MSVCP100.dll
 0002:000081c4       __IMPORT_DESCRIPTOR_USER32 0043a1c4     user32:USER32.dll
 0002:000081d8       __IMPORT_DESCRIPTOR_ADVAPI32 0043a1d8     advapi32:ADVAPI32.dll
 0002:000081ec       __NULL_IMPORT_DESCRIPTOR   0043a1ec     msvcrt:MSVCR100.dll
 0003:00000000       ??_R0?AVtype_info@@@8      0043c000     msvcrt:ti_inst.obj
 0003:00000018       ___security_cookie         0043c018     msvcrt:gs_cookie.obj
 0003:0000001c       ___security_cookie_complement 0043c01c     msvcrt:gs_cookie.obj
 0003:00000020       ___native_dllmain_reason   0043c020     msvcrt:natstart.obj
 0003:00000024       ___native_vcclrit_reason   0043c024     msvcrt:natstart.obj
 0003:00000028       ___globallocalestatus      0043c028     msvcrt:xthdloc.obj
 0003:0000002c       ___defaultmatherr          0043c02c     msvcrt:merr.obj
 0003:0000003c       ??_R0?AVMemoryManager@G3D@@@8 0043c03c     g3dlite:MemoryManager.obj
 0003:0000005c       ??_R0?AVReferenceCountedObject@G3D@@@8 0043c05c     g3dlite:MemoryManager.obj
 0003:00000088       ?_debugHook@_internal@G3D@@3P6A_NPBDABV?$basic_string@DU?$char_traits@D@std@@V?$allocator@D@2@@std@@0H_N@ZA 0043c088     g3dlite:debugAssert.obj
 0003:0000008c       ?_failureHook@_internal@G3D@@3P6A_NPBDABV?$basic_string@DU?$char_traits@D@std@@V?$allocator@D@2@@std@@0H_N@ZA 0043c08c     g3dlite:debugAssert.obj
 0003:000000a0       ??_R0?AV?$Table@V?$basic_string@DU?$char_traits@D@std@@V?$allocator@D@2@@std@@_NU?$HashTrait@V?$basic_string@DU?$char_traits@D@std@@V?$allocator@D@2@@std@@@@U?$EqualsTrait@V?$basic_string@DU?$char_traits@D@std@@V?$allocator@D@2@@std@@@@@G3D@@@8 0043c0a0     g3dlite:Any.obj
 0003:00000198       ??_R0?AV?$Set@V?$basic_string@DU?$char_traits@D@std@@V?$allocator@D@2@@std@@U?$HashTrait@V?$basic_string@DU?$char_traits@D@std@@V?$allocator@D@2@@std@@@@U?$EqualsTrait@V?$basic_string@DU?$char_traits@D@std@@V?$allocator@D@2@@std@@@@@G3D@@@8 0043c198     g3dlite:Any.obj
 0003:0000028c       ?currentFilesUsed@_internal@G3D@@3V?$Set@V?$basic_string@DU?$char_traits@D@std@@V?$allocator@D@2@@std@@U?$HashTrait@V?$basic_string@DU?$char_traits@D@std@@V?$allocator@D@2@@std@@@@U?$EqualsTrait@V?$basic_string@DU?$char_traits@D@std@@V?$allocator@D@2@@std@@@@@2@A 0043c28c     g3dlite:fileutils.obj
 0003:000002a4       ?NEWLINE@G3D@@3PBDB        0043c2a4     g3dlite:stringutils.obj
 0003:000002a8       ??_R0?AVLog@G3D@@@8        0043c2a8     g3dlite:Log.obj
 0003:00000300       ??_R0?AVexception@std@@@8  0043c300     BIH.obj
 0003:0000031c       ??_R0?AVbad_alloc@std@@@8  0043c31c     BIH.obj
 0003:00000338       ??_R0?AV?$basic_ostream@DU?$char_traits@D@std@@@std@@@8 0043c338     MapTree.obj
 0003:00000374       ??_R0?AV?$_Iosb@H@std@@@8  0043c374     MapTree.obj
 0003:00000390       ??_R0?AVios_base@std@@@8   0043c390     MapTree.obj
 0003:000003ac       ??_R0?AV?$basic_ios@DU?$char_traits@D@std@@@std@@@8 0043c3ac     MapTree.obj
 0003:000003e4       ??_R0?AV?$basic_istream@DU?$char_traits@D@std@@@std@@@8 0043c3e4     MapTree.obj
 0003:00000420       ??_R0?AV?$basic_iostream@DU?$char_traits@D@std@@@std@@@8 0043c420     MapTree.obj
 0003:00000460       ??_R0?AV?$basic_stringstream@DU?$char_traits@D@std@@V?$allocator@D@2@@std@@@8 0043c460     MapTree.obj
 0003:000004b0       ??_R0?AV?$basic_streambuf@DU?$char_traits@D@std@@@std@@@8 0043c4b0     MapTree.obj
 0003:000004f0       ??_R0?AV?$basic_stringbuf@DU?$char_traits@D@std@@V?$allocator@D@2@@std@@@8 0043c4f0     MapTree.obj
 0003:00000540       ??_R0?AVVMapManager2@VMAP@@@8 0043c540     VMapManager2.obj
 0003:00000560       ??_R0?AVIVMapManager@VMAP@@@8 0043c560     VMapManager2.obj
 0003:00000580       ??_R0?AVrcContext@@@8      0043c580     MapBuilder.obj
 0003:000005a0       ?MAP_VERSION_MAGIC@@3PBDB  0043c5a0     TerrainBuilder.obj
 0003:00000904       __dowildcard               0043c904     msvcrt:wildcard.obj
 0003:00000908       __newmode                  0043c908     msvcrt:_newmode.obj
 0003:0000090c       __commode                  0043c90c     msvcrt:xncommod.obj
 0003:00000910       __fmode                    0043c910     msvcrt:xtxtmode.obj
 0003:00000968       ?initialized@?1??initMem@G3D@@YAXXZ@4_NA 0043c968     g3dlite:System.obj
 0003:00000a58       ?_consolePrintHook@_internal@G3D@@3P6AXABV?$basic_string@DU?$char_traits@D@std@@V?$allocator@D@2@@std@@@ZA 0043ca58     g3dlite:debugAssert.obj
 0003:00000a68       ?ignoreBool@CollisionDetection@G3D@@0_NA 0043ca68     g3dlite:CollisionDetection.obj
 0003:00000a6c       ?ignore@CollisionDetection@G3D@@0VVector3@2@A 0043ca6c     g3dlite:CollisionDetection.obj
 0003:00000a78       ?ignoreArray@CollisionDetection@G3D@@0V?$Array@VVector3@G3D@@$09$0CA@@2@A 0043ca78     g3dlite:CollisionDetection.obj
 0003:00000a88       ?dummy@Box@G3D@@0HA        0043ca88     g3dlite:Box.obj
 0003:00000a8c       ?commonLog@Log@G3D@@0PAV12@A 0043ca8c     g3dlite:Log.obj
 0003:00000a90       ?dummy@Sphere@G3D@@0HA     0043ca90     g3dlite:Sphere.obj
 0003:00000ab0       ___sse2_available          0043cab0     <common>
 0003:00000ab4       ___native_startup_state    0043cab4     <common>
 0003:00000ab8       ___native_startup_lock     0043cab8     <common>
 0003:00000abc       ___onexitend               0043cabc     <common>
 0003:00000ac0       ___onexitbegin             0043cac0     <common>
 0003:00000ac4       __NoHeapEnableTerminationOnCorruption 0043cac4     <common>
 0003:00000ac8       ___dyn_tls_init_callback   0043cac8     <common>

 entry point at        0001:00024656

 Static symbols

 0001:00003305       __catch$?_Copy@?$basic_string@DU?$char_traits@D@std@@V?$allocator@D@2@@std@@QAEXII@Z$0 00404305 f i  CIL library: CIL module
 0001:0000338e       __catch$?_Copy@?$basic_string@DU?$char_traits@D@std@@V?$allocator@D@2@@std@@QAEXII@Z$1 0040438e f i  CIL library: CIL module
 0001:00003614       __catch$??$?6U?$char_traits@D@std@@@std@@YAAAV?$basic_ostream@DU?$char_traits@D@std@@@0@AAV10@PBD@Z$0 00404614 f i  CIL library: CIL module
 0001:0000541f       __catch$?reserve@?$vector@VVector3@G3D@@V?$allocator@VVector3@G3D@@@std@@@std@@QAEXI@Z$0 0040641f f i  CIL library: CIL module
 0001:0000541f       __catch$?reserve@?$vector@VMeshTriangle@VMAP@@V?$allocator@VMeshTriangle@VMAP@@@std@@@std@@QAEXI@Z$0 0040641f f i  CIL library: CIL module
 0001:0000552c       __catch$?reserve@?$vector@VGroupModel@VMAP@@V?$allocator@VGroupModel@VMAP@@@std@@@std@@QAEXI@Z$0 0040652c f i  CIL library: CIL module
 0001:00005815       __catch$??$?6DU?$char_traits@D@std@@V?$allocator@D@1@@std@@YAAAV?$basic_ostream@DU?$char_traits@D@std@@@0@AAV10@ABV?$basic_string@DU?$char_traits@D@std@@V?$allocator@D@2@@0@@Z$0 00406815 f i  CIL library: CIL module
 0001:00007140       __catch$?_Insert_n@?$vector@V?$_List_iterator@V?$_List_val@U?$pair@$$CBV?$basic_string@DU?$char_traits@D@std@@V?$allocator@D@2@@std@@VManagedModel@VMAP@@@std@@V?$allocator@U?$pair@$$CBV?$basic_string@DU?$char_traits@D@std@@V?$allocator@D@2@@std@@VManagedModel@VMAP@@@std@@@2@@std@@@std@@V?$allocator@V?$_List_iterator@V?$_List_val@U?$pair@$$CBV?$basic_string@DU?$char_traits@D@std@@V?$allocator@D@2@@std@@VManagedModel@VMAP@@@std@@V?$allocator@U?$pair@$$CBV?$basic_string@DU?$char_traits@D@std@@V?$allocator@D@2@@std@@VManagedModel@VMAP@@@std@@@2@@std@@@std@@@2@@std@@IAEXV?$_Vector_const_iterator@V?$_Vector_val@V?$_List_iterator@V?$_List_val@U?$pair@$$CBV?$basic_string@DU?$char_traits@D@std@@V?$allocator@D@2@@std@@VManagedModel@VMAP@@@std@@V?$allocator@U?$pair@$$CBV?$basic_string@DU?$char_traits@D@std@@V?$allocator@D@2@@std@@VManagedModel@VMAP@@@std@@@2@@std@@@std@@V?$allocator@V?$_List_iterator@V?$_List_val@U?$pair@$$CBV?$basic_string@DU?$char_traits@D@std@@V?$allocator@D@2@@std@@VManagedModel@VMAP@@@std@@V?$allocator@U?$pair@$$CBV?$basic_string@DU?$char_traits@D@std@@V?$allocator@D@2@@std@@VManagedModel@VMAP@@@std@@@2@@std@@@std@@@2@@std@@@2@IABV?$_List_iterator@V?$_List_val@U?$pair@$$CBV?$basic_string@DU?$char_traits@D@std@@V?$allocator@D@2@@std@@VManagedModel@VMAP@@@std@@V?$allocator@U?$pair@$$CBV?$basic_string@DU?$char_traits@D@std@@V?$allocator@D@2@@std@@VManagedModel@VMAP@@@std@@@2@@std@@@2@@Z$0 00408140 f i  CIL library: CIL module
 0001:00007140       __catch$?_Insert_n@?$vector@V?$_List_iterator@V?$_List_val@U?$pair@$$CBIPAVStaticMapTree@VMAP@@@std@@V?$allocator@U?$pair@$$CBIPAVStaticMapTree@VMAP@@@std@@@2@@std@@@std@@V?$allocator@V?$_List_iterator@V?$_List_val@U?$pair@$$CBIPAVStaticMapTree@VMAP@@@std@@V?$allocator@U?$pair@$$CBIPAVStaticMapTree@VMAP@@@std@@@2@@std@@@std@@@2@@std@@IAEXV?$_Vector_const_iterator@V?$_Vector_val@V?$_List_iterator@V?$_List_val@U?$pair@$$CBIPAVStaticMapTree@VMAP@@@std@@V?$allocator@U?$pair@$$CBIPAVStaticMapTree@VMAP@@@std@@@2@@std@@@std@@V?$allocator@V?$_List_iterator@V?$_List_val@U?$pair@$$CBIPAVStaticMapTree@VMAP@@@std@@V?$allocator@U?$pair@$$CBIPAVStaticMapTree@VMAP@@@std@@@2@@std@@@std@@@2@@std@@@2@IABV?$_List_iterator@V?$_List_val@U?$pair@$$CBIPAVStaticMapTree@VMAP@@@std@@V?$allocator@U?$pair@$$CBIPAVStaticMapTree@VMAP@@@std@@@2@@std@@@2@@Z$0 00408140 f i  CIL library: CIL module
 0001:00007140       __catch$?_Insert_n@?$vector@V?$_List_iterator@V?$_List_val@U?$pair@$$CBI_N@std@@V?$allocator@U?$pair@$$CBI_N@std@@@2@@std@@@std@@V?$allocator@V?$_List_iterator@V?$_List_val@U?$pair@$$CBI_N@std@@V?$allocator@U?$pair@$$CBI_N@std@@@2@@std@@@std@@@2@@std@@IAEXV?$_Vector_const_iterator@V?$_Vector_val@V?$_List_iterator@V?$_List_val@U?$pair@$$CBI_N@std@@V?$allocator@U?$pair@$$CBI_N@std@@@2@@std@@@std@@V?$allocator@V?$_List_iterator@V?$_List_val@U?$pair@$$CBI_N@std@@V?$allocator@U?$pair@$$CBI_N@std@@@2@@std@@@std@@@2@@std@@@2@IABV?$_List_iterator@V?$_List_val@U?$pair@$$CBI_N@std@@V?$allocator@U?$pair@$$CBI_N@std@@@2@@std@@@2@@Z$0 00408140 f i  CIL library: CIL module
 0001:00007140       __catch$?_Insert_n@?$vector@V?$_List_iterator@V?$_List_val@U?$pair@$$CBII@std@@V?$allocator@U?$pair@$$CBII@std@@@2@@std@@@std@@V?$allocator@V?$_List_iterator@V?$_List_val@U?$pair@$$CBII@std@@V?$allocator@U?$pair@$$CBII@std@@@2@@std@@@std@@@2@@std@@IAEXV?$_Vector_const_iterator@V?$_Vector_val@V?$_List_iterator@V?$_List_val@U?$pair@$$CBII@std@@V?$allocator@U?$pair@$$CBII@std@@@2@@std@@@std@@V?$allocator@V?$_List_iterator@V?$_List_val@U?$pair@$$CBII@std@@V?$allocator@U?$pair@$$CBII@std@@@2@@std@@@std@@@2@@std@@@2@IABV?$_List_iterator@V?$_List_val@U?$pair@$$CBII@std@@V?$allocator@U?$pair@$$CBII@std@@@2@@std@@@2@@Z$0 00408140 f i  CIL library: CIL module
 0001:0000714d       __catch$?_Insert_n@?$vector@V?$_List_iterator@V?$_List_val@U?$pair@$$CBII@std@@V?$allocator@U?$pair@$$CBII@std@@@2@@std@@@std@@V?$allocator@V?$_List_iterator@V?$_List_val@U?$pair@$$CBII@std@@V?$allocator@U?$pair@$$CBII@std@@@2@@std@@@std@@@2@@std@@IAEXV?$_Vector_const_iterator@V?$_Vector_val@V?$_List_iterator@V?$_List_val@U?$pair@$$CBII@std@@V?$allocator@U?$pair@$$CBII@std@@@2@@std@@@std@@V?$allocator@V?$_List_iterator@V?$_List_val@U?$pair@$$CBII@std@@V?$allocator@U?$pair@$$CBII@std@@@2@@std@@@std@@@2@@std@@@2@IABV?$_List_iterator@V?$_List_val@U?$pair@$$CBII@std@@V?$allocator@U?$pair@$$CBII@std@@@2@@std@@@2@@Z$2 0040814d f i  CIL library: CIL module
 0001:0000714d       __catch$?_Insert_n@?$vector@V?$_List_iterator@V?$_List_val@U?$pair@$$CBI_N@std@@V?$allocator@U?$pair@$$CBI_N@std@@@2@@std@@@std@@V?$allocator@V?$_List_iterator@V?$_List_val@U?$pair@$$CBI_N@std@@V?$allocator@U?$pair@$$CBI_N@std@@@2@@std@@@std@@@2@@std@@IAEXV?$_Vector_const_iterator@V?$_Vector_val@V?$_List_iterator@V?$_List_val@U?$pair@$$CBI_N@std@@V?$allocator@U?$pair@$$CBI_N@std@@@2@@std@@@std@@V?$allocator@V?$_List_iterator@V?$_List_val@U?$pair@$$CBI_N@std@@V?$allocator@U?$pair@$$CBI_N@std@@@2@@std@@@std@@@2@@std@@@2@IABV?$_List_iterator@V?$_List_val@U?$pair@$$CBI_N@std@@V?$allocator@U?$pair@$$CBI_N@std@@@2@@std@@@2@@Z$2 0040814d f i  CIL library: CIL module
 0001:0000714d       __catch$?_Insert_n@?$vector@V?$_List_iterator@V?$_List_val@U?$pair@$$CBIPAVStaticMapTree@VMAP@@@std@@V?$allocator@U?$pair@$$CBIPAVStaticMapTree@VMAP@@@std@@@2@@std@@@std@@V?$allocator@V?$_List_iterator@V?$_List_val@U?$pair@$$CBIPAVStaticMapTree@VMAP@@@std@@V?$allocator@U?$pair@$$CBIPAVStaticMapTree@VMAP@@@std@@@2@@std@@@std@@@2@@std@@IAEXV?$_Vector_const_iterator@V?$_Vector_val@V?$_List_iterator@V?$_List_val@U?$pair@$$CBIPAVStaticMapTree@VMAP@@@std@@V?$allocator@U?$pair@$$CBIPAVStaticMapTree@VMAP@@@std@@@2@@std@@@std@@V?$allocator@V?$_List_iterator@V?$_List_val@U?$pair@$$CBIPAVStaticMapTree@VMAP@@@std@@V?$allocator@U?$pair@$$CBIPAVStaticMapTree@VMAP@@@std@@@2@@std@@@std@@@2@@std@@@2@IABV?$_List_iterator@V?$_List_val@U?$pair@$$CBIPAVStaticMapTree@VMAP@@@std@@V?$allocator@U?$pair@$$CBIPAVStaticMapTree@VMAP@@@std@@@2@@std@@@2@@Z$2 0040814d f i  CIL library: CIL module
 0001:0000714d       __catch$?_Insert_n@?$vector@V?$_List_iterator@V?$_List_val@U?$pair@$$CBV?$basic_string@DU?$char_traits@D@std@@V?$allocator@D@2@@std@@VManagedModel@VMAP@@@std@@V?$allocator@U?$pair@$$CBV?$basic_string@DU?$char_traits@D@std@@V?$allocator@D@2@@std@@VManagedModel@VMAP@@@std@@@2@@std@@@std@@V?$allocator@V?$_List_iterator@V?$_List_val@U?$pair@$$CBV?$basic_string@DU?$char_traits@D@std@@V?$allocator@D@2@@std@@VManagedModel@VMAP@@@std@@V?$allocator@U?$pair@$$CBV?$basic_string@DU?$char_traits@D@std@@V?$allocator@D@2@@std@@VManagedModel@VMAP@@@std@@@2@@std@@@std@@@2@@std@@IAEXV?$_Vector_const_iterator@V?$_Vector_val@V?$_List_iterator@V?$_List_val@U?$pair@$$CBV?$basic_string@DU?$char_traits@D@std@@V?$allocator@D@2@@std@@VManagedModel@VMAP@@@std@@V?$allocator@U?$pair@$$CBV?$basic_string@DU?$char_traits@D@std@@V?$allocator@D@2@@std@@VManagedModel@VMAP@@@std@@@2@@std@@@std@@V?$allocator@V?$_List_iterator@V?$_List_val@U?$pair@$$CBV?$basic_string@DU?$char_traits@D@std@@V?$allocator@D@2@@std@@VManagedModel@VMAP@@@std@@V?$allocator@U?$pair@$$CBV?$basic_string@DU?$char_traits@D@std@@V?$allocator@D@2@@std@@VManagedModel@VMAP@@@std@@@2@@std@@@std@@@2@@std@@@2@IABV?$_List_iterator@V?$_List_val@U?$pair@$$CBV?$basic_string@DU?$char_traits@D@std@@V?$allocator@D@2@@std@@VManagedModel@VMAP@@@std@@V?$allocator@U?$pair@$$CBV?$basic_string@DU?$char_traits@D@std@@V?$allocator@D@2@@std@@VManagedModel@VMAP@@@std@@@2@@std@@@2@@Z$2 0040814d f i  CIL library: CIL module
 0001:000079b8       __catch$??$_Buynode@U?$pair@V?$basic_string@DU?$char_traits@D@std@@V?$allocator@D@2@@std@@VManagedModel@VMAP@@@std@@@?$_List_val@U?$pair@$$CBV?$basic_string@DU?$char_traits@D@std@@V?$allocator@D@2@@std@@VManagedModel@VMAP@@@std@@V?$allocator@U?$pair@$$CBV?$basic_string@DU?$char_traits@D@std@@V?$allocator@D@2@@std@@VManagedModel@VMAP@@@std@@@2@@std@@QAEPAU_Node@?$_List_nod@U?$pair@$$CBV?$basic_string@DU?$char_traits@D@std@@V?$allocator@D@2@@std@@VManagedModel@VMAP@@@std@@V?$allocator@U?$pair@$$CBV?$basic_string@DU?$char_traits@D@std@@V?$allocator@D@2@@std@@VManagedModel@VMAP@@@std@@@2@@1@PAU231@0$$QAU?$pair@V?$basic_string@DU?$char_traits@D@std@@V?$allocator@D@2@@std@@VManagedModel@VMAP@@@1@@Z$0 004089b8 f i  CIL library: CIL module
 0001:00008a26       __catch$??0?$vector@IV?$allocator@I@std@@@std@@QAE@ABV01@@Z$0 00409a26 f i  CIL library: CIL module
 0001:00008af7       __catch$??0?$vector@VMeshTriangle@VMAP@@V?$allocator@VMeshTriangle@VMAP@@@std@@@std@@QAE@ABV01@@Z$0 00409af7 f i  CIL library: CIL module
 0001:00008af7       __catch$??0?$vector@VVector3@G3D@@V?$allocator@VVector3@G3D@@@std@@@std@@QAE@ABV01@@Z$0 00409af7 f i  CIL library: CIL module
 0001:00009e21       __catch$??$_Uninit_def_fill_n@PAVGroupModel@VMAP@@IV12@V?$allocator@VGroupModel@VMAP@@@std@@V12@@std@@YAXPAVGroupModel@VMAP@@IPBV12@AAV?$allocator@VGroupModel@VMAP@@@0@0U_Nonscalar_ptr_iterator_tag@0@@Z$0 0040ae21 f i  CIL library: CIL module
 0001:0000b3b1       __catch$?reserve@?$vector@V?$basic_string@DU?$char_traits@D@std@@V?$allocator@D@2@@std@@V?$allocator@V?$basic_string@DU?$char_traits@D@std@@V?$allocator@D@2@@std@@@2@@std@@QAEXI@Z$0 0040c3b1 f i  CIL library: CIL module
 0001:00015ec4       __catch$?_Copy@?$_Hash@V?$_Umap_traits@IPAVStaticMapTree@VMAP@@V?$_Hash_compare@IV?$hash@I@std@@U?$equal_to@I@2@@std@@V?$allocator@U?$pair@$$CBIPAVStaticMapTree@VMAP@@@std@@@4@$0A@@tr1@std@@@std@@IAEXABV12@@Z$0 00416ec4 f i  CIL library: CIL module
 0001:00015f67       __catch$??$_Insert@V?$_List_const_iterator@V?$_List_val@U?$pair@$$CBIPAVStaticMapTree@VMAP@@@std@@V?$allocator@U?$pair@$$CBIPAVStaticMapTree@VMAP@@@std@@@2@@std@@@std@@@?$list@U?$pair@$$CBIPAVStaticMapTree@VMAP@@@std@@V?$allocator@U?$pair@$$CBIPAVStaticMapTree@VMAP@@@std@@@2@@std@@QAEXV?$_List_const_iterator@V?$_List_val@U?$pair@$$CBIPAVStaticMapTree@VMAP@@@std@@V?$allocator@U?$pair@$$CBIPAVStaticMapTree@VMAP@@@std@@@2@@std@@@1@00Uforward_iterator_tag@1@@Z$0 00416f67 f i  CIL library: CIL module
 0001:0001600e       __catch$??$_Uninit_move@PAVGroupModel@VMAP@@PAV12@V?$allocator@VGroupModel@VMAP@@@std@@V12@@std@@YAPAVGroupModel@VMAP@@PAV12@00AAV?$allocator@VGroupModel@VMAP@@@0@0U_Nonscalar_ptr_iterator_tag@0@@Z$0 0041700e f i  CIL library: CIL module
 0001:0001600e       __catch$??$_Uninit_copy@PAVGroupModel@VMAP@@PAV12@V?$allocator@VGroupModel@VMAP@@@std@@@std@@YAPAVGroupModel@VMAP@@PAV12@00AAV?$allocator@VGroupModel@VMAP@@@0@U_Nonscalar_ptr_iterator_tag@0@@Z$0 0041700e f i  CIL library: CIL module
 0001:00016050       ?getCornerHeight@@YAHHHHHABUrcCompactHeightfield@@AA_N@Z 00417050 f    CIL library: CIL module
 0001:000163d0       ?walkContour@@YAXHHHAAUrcCompactHeightfield@@PAEAAVrcIntArray@@@Z 004173d0 f    CIL library: CIL module
 0001:00016830       ?distancePtSeg@@YAMHHHHHH@Z 00417830 f    CIL library: CIL module
 0001:00016920       ?simplifyContour@@YAXAAVrcIntArray@@0MHH@Z 00417920 f    CIL library: CIL module
 0001:00017510       ?removeDegenerateSegments@@YAXAAVrcIntArray@@@Z 00418510 f    CIL library: CIL module
 0001:00017650       ?calcAreaOfPolygon2D@@YAHPBHH@Z 00418650 f    CIL library: CIL module
 0001:00017700       ?getClosestIndices@@YAXPBHH0HAAH1@Z 00418700 f    CIL library: CIL module
 0001:00017850       ?mergeContours@@YA_NAAUrcContour@@0HH@Z 00418850 f    CIL library: CIL module
 0001:00018bd0       ?allocSpan@@YAPAUrcSpan@@AAUrcHeightfield@@@Z 00419bd0 f    CIL library: CIL module
 0001:00018c30       ?addSpan@@YAXAAUrcHeightfield@@HHGGEH@Z 00419c30 f    CIL library: CIL module
 0001:00018d50       ?clipPoly@@YAHPBMHPAMMMM@Z 00419d50 f    CIL library: CIL module
 0001:00018f00       ?rasterizeTri@@YAXPBM00EAAUrcHeightfield@@00MMMH@Z 00419f00 f    CIL library: CIL module
 0001:000196e0       ?calculateDistanceField@@YAXAAUrcCompactHeightfield@@PAGAAG@Z 0041a6e0 f    CIL library: CIL module
 0001:00019c50       ?boxBlur@@YAPAGAAUrcCompactHeightfield@@HPAG1@Z 0041ac50 f    CIL library: CIL module
 0001:00019f30       ?floodRegion@@YA_NHHHGGAAUrcCompactHeightfield@@PAG1AAVrcIntArray@@@Z 0041af30 f    CIL library: CIL module
 0001:0001a480       ?expandRegions@@YAPAGHGAAUrcCompactHeightfield@@PAG111AAVrcIntArray@@@Z 0041b480 f    CIL library: CIL module
 0001:0001a9d0       ?removeAdjacentNeighbours@@YAXAAUrcRegion@@@Z 0041b9d0 f    CIL library: CIL module
 0001:0001aa40       ?addUniqueFloorRegion@@YAXAAUrcRegion@@H@Z 0041ba40 f    CIL library: CIL module
 0001:0001aaf0       ?mergeRegions@@YA_NAAUrcRegion@@0@Z 0041baf0 f    CIL library: CIL module
 0001:0001ae90       ?walkContour@@YAXHHHHAAUrcCompactHeightfield@@PAGAAVrcIntArray@@@Z 0041be90 f    CIL library: CIL module
 0001:0001b1b0       ?filterSmallRegions@@YA_NPAVrcContext@@HHAAGAAUrcCompactHeightfield@@PAG@Z 0041c1b0 f    CIL library: CIL module
 0001:0001bd20       ?paintRectRegion@@YAXHHHHGAAUrcCompactHeightfield@@PAG@Z 0041cd20 f    CIL library: CIL module
 0001:0001c210       ?circumCircle@@YA_NPBM00PAMAAM@Z 0041d210 f    CIL library: CIL module
 0001:0001c360       ?distancePtSeg@@YAMPBM00@Z 0041d360 f    CIL library: CIL module
 0001:0001c470       ?distancePtSeg2d@@YAMPBM00@Z 0041d470 f    CIL library: CIL module
 0001:0001c540       ?distToTriMesh@@YAMPBM0HPBHH@Z 0041d540 f    CIL library: CIL module
 0001:0001c720       ?distToPoly@@YAMHPBM0@Z    0041d720 f    CIL library: CIL module
 0001:0001c810       ?getHeight@@YAGMMMMMMABUrcHeightPatch@@@Z 0041d810 f    CIL library: CIL module
 0001:0001c9a0       ?addEdge@@YAHPAVrcContext@@PAHAAHHHHHH@Z 0041d9a0 f    CIL library: CIL module
 0001:0001ca30       ?overlapSegSeg2d@@YAHPBM000@Z 0041da30 f    CIL library: CIL module
 0001:0001cb10       ?overlapEdges@@YA_NPBMPBHHHH@Z 0041db10 f    CIL library: CIL module
 0001:0001cb90       ?completeFacet@@YAXPAVrcContext@@PBMHPAHAAHH3H@Z 0041db90 f    CIL library: CIL module
 0001:0001cf80       ?delaunayHull@@YAXPAVrcContext@@HPBMHPBHAAVrcIntArray@@3@Z 0041df80 f    CIL library: CIL module
 0001:0001d2a0       ?buildPolyDetail@@YA_NPAVrcContext@@PBMHMMABUrcCompactHeightfield@@ABUrcHeightPatch@@PAMAAHAAVrcIntArray@@66@Z 0041e2a0 f    CIL library: CIL module
 0001:0001e8d0       ?getHeightData@@YAXABUrcCompactHeightfield@@PBGH1AAUrcHeightPatch@@AAVrcIntArray@@@Z 0041f8d0 f    CIL library: CIL module
 0001:0001f520       ?getEdgeFlags@@YAEPBM00H@Z 00420520 f    CIL library: CIL module
 0001:00020c40       ?buildMeshAdjacency@@YA_NPAGHHH@Z 00421c40 f    CIL library: CIL module
 0001:00020ef0       ?addVertex@@YAGGGGPAGPAH1AAH@Z 00421ef0 f    CIL library: CIL module
 0001:00021110       ?between@@YA_NPBH00@Z      00422110 f    CIL library: CIL module
 0001:000211a0       ?intersect@@YA_NPBH000@Z   004221a0 f    CIL library: CIL module
 0001:00021210       ?diagonalie@@YA_NHHHPBHPAH@Z 00422210 f    CIL library: CIL module
 0001:00021320       ?inCone@@YA_NHHHPBHPAH@Z   00422320 f    CIL library: CIL module
 0001:00021470       ?triangulate@@YAHHPBHPAH1@Z 00422470 f    CIL library: CIL module
 0001:00021720       ?getPolyMergeValue@@YAHPAG0PBGAAH2H@Z 00422720 f    CIL library: CIL module
 0001:00021980       ?mergePolys@@YAXPAG0HH0H@Z 00422980 f    CIL library: CIL module
 0001:00021a70       ?canRemoveVertex@@YA_NPAVrcContext@@AAUrcPolyMesh@@G@Z 00422a70 f    CIL library: CIL module
 0001:00021ce0       ?removeVertex@@YA_NPAVrcContext@@AAUrcPolyMesh@@GH@Z 00422ce0 f    CIL library: CIL module
 0001:00024190       ?dtAllocDefault@@YAPAXHW4dtAllocHint@@@Z 00425190 f    CIL library: CIL module
 0001:00024190       ?rcAllocDefault@@YAPAXHW4rcAllocHint@@@Z 00425190 f    CIL library: CIL module
 0001:000241b0       ?rcFreeDefault@@YAXPAX@Z   004251b0 f    CIL library: CIL module
 0001:000241b0       ?dtFreeDefault@@YAXPAX@Z   004251b0 f    CIL library: CIL module
 0001:000243c8       _pre_cpp_init              004253c8 f   msvcrt:crtexe.obj
 0001:00024413       ___tmainCRTStartup         00425413 f   msvcrt:crtexe.obj
 0001:0002459c       _pre_c_init                0042559c f   msvcrt:crtexe.obj
 0001:00024be0       ?calcSlabEndPoints@@YAXPBM0PAM1H@Z 00425be0 f   Detour:DetourNavMesh.obj
 0001:00026a70       ?compareItemX@@YAHPBX0@Z   00427a70 f   Detour:DetourNavMeshBuilder.obj
 0001:00026a90       ?compareItemY@@YAHPBX0@Z   00427a90 f   Detour:DetourNavMeshBuilder.obj
 0001:00026ac0       ?compareItemZ@@YAHPBX0@Z   00427ac0 f   Detour:DetourNavMeshBuilder.obj
 0001:00026af0       ?calcExtends@@YAXPAUBVItem@@HHHPAG1@Z 00427af0 f   Detour:DetourNavMeshBuilder.obj
 0001:00026ba0       ?subdivide@@YAXPAUBVItem@@HHHAAHPAUdtBVNode@@@Z 00427ba0 f   Detour:DetourNavMeshBuilder.obj
 0001:00026cf0       ?createBVTree@@YAHPBGH0HHMMHPAUdtBVNode@@@Z 00427cf0 f   Detour:DetourNavMeshBuilder.obj
 0001:00026eb0       ?classifyOffMeshPoint@@YAEPBM00@Z 00427eb0 f   Detour:DetourNavMeshBuilder.obj
 0001:00029b00       ?postToClipboard@_internal@G3D@@YAXPBD@Z 0042ab00 f   g3dlite:debugAssert.obj
 0001:00029e10       ?createErrorMessage@_internal@G3D@@YAXPBDABV?$basic_string@DU?$char_traits@D@std@@V?$allocator@D@2@@std@@0HAAV34@2@Z 0042ae10 f   g3dlite:debugAssert.obj
 0001:0002b5b0       ?getRootKeyFromString@G3D@@YAPAUHKEY__@@PBDI@Z 0042c5b0 f   g3dlite:RegistryUtil.obj
 0001:0002bdd0       ?textPrompt@G3D@@YAHPBD0PAPBDH@Z 0042cdd0 f   g3dlite:prompt.obj
 0001:0002bef0       _crc32_little              0042cef0 f   zlib:crc32.obj
 0001:0002c1d0       _flush_pending             0042d1d0 f   zlib:deflate.obj
 0001:0002c220       _longest_match             0042d220 f   zlib:deflate.obj
 0001:0002c380       _longest_match_fast        0042d380 f   zlib:deflate.obj
 0001:0002c420       _fill_window               0042d420 f   zlib:deflate.obj
 0001:0002c570       _deflate_stored            0042d570 f   zlib:deflate.obj
 0001:0002c750       _deflate_fast              0042d750 f   zlib:deflate.obj
 0001:0002cad0       _deflate_slow              0042dad0 f   zlib:deflate.obj
 0001:0002d1c0       _init_block                0042e1c0 f   zlib:trees.obj
 0001:0002d240       _pqdownheap                0042e240 f   zlib:trees.obj
 0001:0002d320       _gen_bitlen                0042e320 f   zlib:trees.obj
 0001:0002d520       _scan_tree                 0042e520 f   zlib:trees.obj
 0001:0002d600       _send_tree                 0042e600 f   zlib:trees.obj
 0001:0002db80       _send_all_trees            0042eb80 f   zlib:trees.obj
 0001:0002ddd0       _compress_block            0042edd0 f   zlib:trees.obj
 0001:0002e1e0       _set_data_type             0042f1e0 f   zlib:trees.obj
 0001:0002e2b0       _bi_windup                 0042f2b0 f   zlib:trees.obj
 0001:0002e310       _copy_block                0042f310 f   zlib:trees.obj
 0001:0002e3e0       _gen_codes                 0042f3e0 f   zlib:trees.obj
 0001:0002e470       _build_tree                0042f470 f   zlib:trees.obj
 0001:0002e670       _build_bl_tree             0042f670 f   zlib:trees.obj
 0001:0002eca0       __unwindfunclet$?create@MemoryManager@G3D@@SA?AV?$ReferenceCountedPointer@VMemoryManager@G3D@@@2@XZ$0 0042fca0 f   g3dlite:MemoryManager.obj
 0001:0002ecae       __unwindfunclet$?create@MemoryManager@G3D@@SA?AV?$ReferenceCountedPointer@VMemoryManager@G3D@@@2@XZ$1 0042fcae f   g3dlite:MemoryManager.obj
 0001:0002ecb9       __ehhandler$?create@MemoryManager@G3D@@SA?AV?$ReferenceCountedPointer@VMemoryManager@G3D@@@2@XZ 0042fcb9 f   g3dlite:MemoryManager.obj
 0001:0002ece0       __unwindfunclet$??1?$Array@V?$basic_string@DU?$char_traits@D@std@@V?$allocator@D@2@@std@@$09$0CA@@G3D@@QAE@XZ$0 0042fce0 f   g3dlite:System.obj
 0001:0002eceb       __ehhandler$??1?$Array@V?$basic_string@DU?$char_traits@D@std@@V?$allocator@D@2@@std@@$09$0CA@@G3D@@QAE@XZ 0042fceb f   g3dlite:System.obj
 0001:0002ed10       __unwindfunclet$?realloc@?$Array@V?$basic_string@DU?$char_traits@D@std@@V?$allocator@D@2@@std@@$09$0CA@@G3D@@AAEXH@Z$0 0042fd10 f   g3dlite:System.obj
 0001:0002ed29       __unwindfunclet$?realloc@?$Array@V?$basic_string@DU?$char_traits@D@std@@V?$allocator@D@2@@std@@$09$0CA@@G3D@@AAEXH@Z$1 0042fd29 f   g3dlite:System.obj
 0001:0002ed3a       __ehhandler$?realloc@?$Array@V?$basic_string@DU?$char_traits@D@std@@V?$allocator@D@2@@std@@$09$0CA@@G3D@@AAEXH@Z 0042fd3a f   g3dlite:System.obj
 0001:0002ed60       __unwindfunclet$??$?HDU?$char_traits@D@std@@V?$allocator@D@1@@std@@YA?AV?$basic_string@DU?$char_traits@D@std@@V?$allocator@D@2@@0@PBDABV10@@Z$0 0042fd60 f   g3dlite:System.obj
 0001:0002ed79       __ehhandler$??$?HDU?$char_traits@D@std@@V?$allocator@D@1@@std@@YA?AV?$basic_string@DU?$char_traits@D@std@@V?$allocator@D@2@@0@PBDABV10@@Z 0042fd79 f   g3dlite:System.obj
 0001:0002eda0       __unwindfunclet$?init@System@G3D@@AAEXXZ$0 0042fda0 f   g3dlite:System.obj
 0001:0002edab       __unwindfunclet$?init@System@G3D@@AAEXXZ$1 0042fdab f   g3dlite:System.obj
 0001:0002edb6       __ehhandler$?init@System@G3D@@AAEXXZ 0042fdb6 f   g3dlite:System.obj
 0001:0002ede0       __unwindfunclet$?append@?$Array@V?$basic_string@DU?$char_traits@D@std@@V?$allocator@D@2@@std@@$09$0CA@@G3D@@QAEXABV?$basic_string@DU?$char_traits@D@std@@V?$allocator@D@2@@std@@@Z$0 0042fde0 f   g3dlite:System.obj
 0001:0002edfc       __unwindfunclet$?append@?$Array@V?$basic_string@DU?$char_traits@D@std@@V?$allocator@D@2@@std@@$09$0CA@@G3D@@QAEXABV?$basic_string@DU?$char_traits@D@std@@V?$allocator@D@2@@std@@@Z$1 0042fdfc f   g3dlite:System.obj
 0001:0002ee04       __ehhandler$?append@?$Array@V?$basic_string@DU?$char_traits@D@std@@V?$allocator@D@2@@std@@$09$0CA@@G3D@@QAEXABV?$basic_string@DU?$char_traits@D@std@@V?$allocator@D@2@@std@@@Z 0042fe04 f   g3dlite:System.obj
 0001:0002ee30       __unwindfunclet$??0System@G3D@@AAE@XZ$0 0042fe30 f   g3dlite:System.obj
 0001:0002ee3b       __unwindfunclet$??0System@G3D@@AAE@XZ$1 0042fe3b f   g3dlite:System.obj
 0001:0002ee46       __unwindfunclet$??0System@G3D@@AAE@XZ$2 0042fe46 f   g3dlite:System.obj
 0001:0002ee51       __unwindfunclet$??0System@G3D@@AAE@XZ$3 0042fe51 f   g3dlite:System.obj
 0001:0002ee5c       __unwindfunclet$??0System@G3D@@AAE@XZ$4 0042fe5c f   g3dlite:System.obj
 0001:0002ee6a       __ehhandler$??0System@G3D@@AAE@XZ 0042fe6a f   g3dlite:System.obj
 0001:0002ee90       __unwindfunclet$?outOfMemoryCallback@System@G3D@@SAP6A_NI_N@ZXZ$0 0042fe90 f   g3dlite:System.obj
 0001:0002ee9e       __ehhandler$?outOfMemoryCallback@System@G3D@@SAP6A_NI_N@ZXZ 0042fe9e f   g3dlite:System.obj
 0001:0002eec0       __unwindfunclet$?malloc@BufferPool@G3D@@QAEPAXI@Z$0 0042fec0 f   g3dlite:System.obj
 0001:0002eece       __unwindfunclet$?malloc@BufferPool@G3D@@QAEPAXI@Z$1 0042fece f   g3dlite:System.obj
 0001:0002eedc       __ehhandler$?malloc@BufferPool@G3D@@QAEPAXI@Z 0042fedc f   g3dlite:System.obj
 0001:0002ef00       __unwindfunclet$?existsMap@VMapManager2@VMAP@@UAE_NPBDIHH@Z$0 0042ff00 f   g3dlite:debugAssert.obj
 0001:0002ef00       __unwindfunclet$?debugPrintf@G3D@@YA?AV?$basic_string@DU?$char_traits@D@std@@V?$allocator@D@2@@std@@PBDZZ$0 0042ff00 f   g3dlite:debugAssert.obj
 0001:0002ef08       __ehhandler$?debugPrintf@G3D@@YA?AV?$basic_string@DU?$char_traits@D@std@@V?$allocator@D@2@@std@@PBDZZ 0042ff08 f   g3dlite:debugAssert.obj
 0001:0002ef08       __ehhandler$?existsMap@VMapManager2@VMAP@@UAE_NPBDIHH@Z 0042ff08 f   g3dlite:debugAssert.obj
 0001:0002ef30       __unwindfunclet$?createErrorMessage@_internal@G3D@@YAXPBDABV?$basic_string@DU?$char_traits@D@std@@V?$allocator@D@2@@std@@0HAAV34@2@Z$0 0042ff30 f   g3dlite:debugAssert.obj
 0001:0002ef3b       __unwindfunclet$?createErrorMessage@_internal@G3D@@YAXPBDABV?$basic_string@DU?$char_traits@D@std@@V?$allocator@D@2@@std@@0HAAV34@2@Z$1 0042ff3b f   g3dlite:debugAssert.obj
 0001:0002ef46       __unwindfunclet$?createErrorMessage@_internal@G3D@@YAXPBDABV?$basic_string@DU?$char_traits@D@std@@V?$allocator@D@2@@std@@0HAAV34@2@Z$2 0042ff46 f   g3dlite:debugAssert.obj
 0001:0002ef51       __unwindfunclet$?createErrorMessage@_internal@G3D@@YAXPBDABV?$basic_string@DU?$char_traits@D@std@@V?$allocator@D@2@@std@@0HAAV34@2@Z$3 0042ff51 f   g3dlite:debugAssert.obj
 0001:0002ef5c       __unwindfunclet$?createErrorMessage@_internal@G3D@@YAXPBDABV?$basic_string@DU?$char_traits@D@std@@V?$allocator@D@2@@std@@0HAAV34@2@Z$4 0042ff5c f   g3dlite:debugAssert.obj
 0001:0002ef67       __unwindfunclet$?createErrorMessage@_internal@G3D@@YAXPBDABV?$basic_string@DU?$char_traits@D@std@@V?$allocator@D@2@@std@@0HAAV34@2@Z$5 0042ff67 f   g3dlite:debugAssert.obj
 0001:0002ef72       __unwindfunclet$?createErrorMessage@_internal@G3D@@YAXPBDABV?$basic_string@DU?$char_traits@D@std@@V?$allocator@D@2@@std@@0HAAV34@2@Z$6 0042ff72 f   g3dlite:debugAssert.obj
 0001:0002ef7d       __ehhandler$?createErrorMessage@_internal@G3D@@YAXPBDABV?$basic_string@DU?$char_traits@D@std@@V?$allocator@D@2@@std@@0HAAV34@2@Z 0042ff7d f   g3dlite:debugAssert.obj
 0001:0002efb0       __unwindfunclet$?_handleDebugAssert_@_internal@G3D@@YA_NPBDABV?$basic_string@DU?$char_traits@D@std@@V?$allocator@D@2@@std@@0H_N@Z$0 0042ffb0 f   g3dlite:debugAssert.obj
 0001:0002efb8       __unwindfunclet$?_handleDebugAssert_@_internal@G3D@@YA_NPBDABV?$basic_string@DU?$char_traits@D@std@@V?$allocator@D@2@@std@@0H_N@Z$1 0042ffb8 f   g3dlite:debugAssert.obj
 0001:0002efc0       __unwindfunclet$?_handleDebugAssert_@_internal@G3D@@YA_NPBDABV?$basic_string@DU?$char_traits@D@std@@V?$allocator@D@2@@std@@0H_N@Z$3 0042ffc0 f   g3dlite:debugAssert.obj
 0001:0002efc8       __unwindfunclet$?_handleDebugAssert_@_internal@G3D@@YA_NPBDABV?$basic_string@DU?$char_traits@D@std@@V?$allocator@D@2@@std@@0H_N@Z$4 0042ffc8 f   g3dlite:debugAssert.obj
 0001:0002efd0       __unwindfunclet$?_handleDebugAssert_@_internal@G3D@@YA_NPBDABV?$basic_string@DU?$char_traits@D@std@@V?$allocator@D@2@@std@@0H_N@Z$5 0042ffd0 f   g3dlite:debugAssert.obj
 0001:0002efdb       __unwindfunclet$?_handleDebugAssert_@_internal@G3D@@YA_NPBDABV?$basic_string@DU?$char_traits@D@std@@V?$allocator@D@2@@std@@0H_N@Z$6 0042ffdb f   g3dlite:debugAssert.obj
 0001:0002efe6       __ehhandler$?_handleDebugAssert_@_internal@G3D@@YA_NPBDABV?$basic_string@DU?$char_traits@D@std@@V?$allocator@D@2@@std@@0H_N@Z 0042ffe6 f   g3dlite:debugAssert.obj
 0001:0002f010       __unwindfunclet$?_handleErrorCheck_@_internal@G3D@@YA_NPBDABV?$basic_string@DU?$char_traits@D@std@@V?$allocator@D@2@@std@@0H_N@Z$0 00430010 f   g3dlite:debugAssert.obj
 0001:0002f01b       __unwindfunclet$?_handleErrorCheck_@_internal@G3D@@YA_NPBDABV?$basic_string@DU?$char_traits@D@std@@V?$allocator@D@2@@std@@0H_N@Z$1 0043001b f   g3dlite:debugAssert.obj
 0001:0002f023       __unwindfunclet$?_handleErrorCheck_@_internal@G3D@@YA_NPBDABV?$basic_string@DU?$char_traits@D@std@@V?$allocator@D@2@@std@@0H_N@Z$2 00430023 f   g3dlite:debugAssert.obj
 0001:0002f02b       __unwindfunclet$?_handleErrorCheck_@_internal@G3D@@YA_NPBDABV?$basic_string@DU?$char_traits@D@std@@V?$allocator@D@2@@std@@0H_N@Z$3 0043002b f   g3dlite:debugAssert.obj
 0001:0002f033       __unwindfunclet$?_handleErrorCheck_@_internal@G3D@@YA_NPBDABV?$basic_string@DU?$char_traits@D@std@@V?$allocator@D@2@@std@@0H_N@Z$4 00430033 f   g3dlite:debugAssert.obj
 0001:0002f03e       __unwindfunclet$?_handleErrorCheck_@_internal@G3D@@YA_NPBDABV?$basic_string@DU?$char_traits@D@std@@V?$allocator@D@2@@std@@0H_N@Z$5 0043003e f   g3dlite:debugAssert.obj
 0001:0002f046       __unwindfunclet$?_handleErrorCheck_@_internal@G3D@@YA_NPBDABV?$basic_string@DU?$char_traits@D@std@@V?$allocator@D@2@@std@@0H_N@Z$7 00430046 f   g3dlite:debugAssert.obj
 0001:0002f04e       __unwindfunclet$?_handleErrorCheck_@_internal@G3D@@YA_NPBDABV?$basic_string@DU?$char_traits@D@std@@V?$allocator@D@2@@std@@0H_N@Z$8 0043004e f   g3dlite:debugAssert.obj
 0001:0002f056       __unwindfunclet$?_handleErrorCheck_@_internal@G3D@@YA_NPBDABV?$basic_string@DU?$char_traits@D@std@@V?$allocator@D@2@@std@@0H_N@Z$9 00430056 f   g3dlite:debugAssert.obj
 0001:0002f061       __unwindfunclet$?_handleErrorCheck_@_internal@G3D@@YA_NPBDABV?$basic_string@DU?$char_traits@D@std@@V?$allocator@D@2@@std@@0H_N@Z$10 00430061 f   g3dlite:debugAssert.obj
 0001:0002f069       __unwindfunclet$?_handleErrorCheck_@_internal@G3D@@YA_NPBDABV?$basic_string@DU?$char_traits@D@std@@V?$allocator@D@2@@std@@0H_N@Z$11 00430069 f   g3dlite:debugAssert.obj
 0001:0002f074       __ehhandler$?_handleErrorCheck_@_internal@G3D@@YA_NPBDABV?$basic_string@DU?$char_traits@D@std@@V?$allocator@D@2@@std@@0H_N@Z 00430074 f   g3dlite:debugAssert.obj
 0001:0002f0a0       __unwindfunclet$?vformat@G3D@@YA?AV?$basic_string@DU?$char_traits@D@std@@V?$allocator@D@2@@std@@PBDPAD@Z$0 004300a0 f   g3dlite:format.obj
 0001:0002f0ab       __ehhandler$?vformat@G3D@@YA?AV?$basic_string@DU?$char_traits@D@std@@V?$allocator@D@2@@std@@PBDPAD@Z 004300ab f   g3dlite:format.obj
 0001:0002f0e0       __unwindfunclet$??_G?$Table@V?$basic_string@DU?$char_traits@D@std@@V?$allocator@D@2@@std@@_NU?$HashTrait@V?$basic_string@DU?$char_traits@D@std@@V?$allocator@D@2@@std@@@@U?$EqualsTrait@V?$basic_string@DU?$char_traits@D@std@@V?$allocator@D@2@@std@@@@@G3D@@UAEPAXI@Z$0 004300e0 f   g3dlite:Any.obj
 0001:0002f0e0       __unwindfunclet$??1?$Set@V?$basic_string@DU?$char_traits@D@std@@V?$allocator@D@2@@std@@U?$HashTrait@V?$basic_string@DU?$char_traits@D@std@@V?$allocator@D@2@@std@@@@U?$EqualsTrait@V?$basic_string@DU?$char_traits@D@std@@V?$allocator@D@2@@std@@@@@G3D@@UAE@XZ$1 004300e0 f   g3dlite:Any.obj
 0001:0002f0eb       __ehhandler$??1?$Set@V?$basic_string@DU?$char_traits@D@std@@V?$allocator@D@2@@std@@U?$HashTrait@V?$basic_string@DU?$char_traits@D@std@@V?$allocator@D@2@@std@@@@U?$EqualsTrait@V?$basic_string@DU?$char_traits@D@std@@V?$allocator@D@2@@std@@@@@G3D@@UAE@XZ 004300eb f   g3dlite:Any.obj
 0001:0002f0eb       __ehhandler$??_G?$Table@V?$basic_string@DU?$char_traits@D@std@@V?$allocator@D@2@@std@@_NU?$HashTrait@V?$basic_string@DU?$char_traits@D@std@@V?$allocator@D@2@@std@@@@U?$EqualsTrait@V?$basic_string@DU?$char_traits@D@std@@V?$allocator@D@2@@std@@@@@G3D@@UAEPAXI@Z 004300eb f   g3dlite:Any.obj
 0001:0002f110       __unwindfunclet$??0?$Table@V?$basic_string@DU?$char_traits@D@std@@V?$allocator@D@2@@std@@_NU?$HashTrait@V?$basic_string@DU?$char_traits@D@std@@V?$allocator@D@2@@std@@@@U?$EqualsTrait@V?$basic_string@DU?$char_traits@D@std@@V?$allocator@D@2@@std@@@@@G3D@@QAE@XZ$0 00430110 f   g3dlite:TextInput.obj
 0001:0002f11b       __unwindfunclet$??0?$Table@V?$basic_string@DU?$char_traits@D@std@@V?$allocator@D@2@@std@@_NU?$HashTrait@V?$basic_string@DU?$char_traits@D@std@@V?$allocator@D@2@@std@@@@U?$EqualsTrait@V?$basic_string@DU?$char_traits@D@std@@V?$allocator@D@2@@std@@@@@G3D@@QAE@XZ$1 0043011b f   g3dlite:TextInput.obj
 0001:0002f123       __ehhandler$??0?$Table@V?$basic_string@DU?$char_traits@D@std@@V?$allocator@D@2@@std@@_NU?$HashTrait@V?$basic_string@DU?$char_traits@D@std@@V?$allocator@D@2@@std@@@@U?$EqualsTrait@V?$basic_string@DU?$char_traits@D@std@@V?$allocator@D@2@@std@@@@@G3D@@QAE@XZ 00430123 f   g3dlite:TextInput.obj
 0001:0002f140       __unwindfunclet$??0?$Array@V?$basic_string@DU?$char_traits@D@std@@V?$allocator@D@2@@std@@$09$0CA@@G3D@@QAE@XZ$0 00430140 f   g3dlite:CollisionDetection.obj
 0001:0002f140       __unwindfunclet$??0?$Array@VVector3@G3D@@$09$0CA@@G3D@@QAE@XZ$0 00430140 f   g3dlite:CollisionDetection.obj
 0001:0002f14b       __unwindfunclet$??0?$Array@VVector3@G3D@@$09$0CA@@G3D@@QAE@XZ$1 0043014b f   g3dlite:CollisionDetection.obj
 0001:0002f14b       __unwindfunclet$??0?$Array@V?$basic_string@DU?$char_traits@D@std@@V?$allocator@D@2@@std@@$09$0CA@@G3D@@QAE@XZ$1 0043014b f   g3dlite:CollisionDetection.obj
 0001:0002f153       __ehhandler$??0?$Array@VVector3@G3D@@$09$0CA@@G3D@@QAE@XZ 00430153 f   g3dlite:CollisionDetection.obj
 0001:0002f153       __ehhandler$??0?$Array@V?$basic_string@DU?$char_traits@D@std@@V?$allocator@D@2@@std@@$09$0CA@@G3D@@QAE@XZ 00430153 f   g3dlite:CollisionDetection.obj
 0001:0002f170       __unwindfunclet$??__F?ignoreArray@CollisionDetection@G3D@@0V?$Array@VVector3@G3D@@$09$0CA@@2@A@@YAXXZ$0 00430170 f   g3dlite:CollisionDetection.obj
 0001:0002f17a       __ehhandler$??__F?ignoreArray@CollisionDetection@G3D@@0V?$Array@VVector3@G3D@@$09$0CA@@2@A@@YAXXZ 0043017a f   g3dlite:CollisionDetection.obj
 0001:0002f1a0       __unwindfunclet$?parseFilename@G3D@@YAXABV?$basic_string@DU?$char_traits@D@std@@V?$allocator@D@2@@std@@AAV23@AAV?$Array@V?$basic_string@DU?$char_traits@D@std@@V?$allocator@D@2@@std@@$09$0CA@@1@11@Z$0 004301a0 f   g3dlite:fileutils.obj
 0001:0002f1a8       __unwindfunclet$?parseFilename@G3D@@YAXABV?$basic_string@DU?$char_traits@D@std@@V?$allocator@D@2@@std@@AAV23@AAV?$Array@V?$basic_string@DU?$char_traits@D@std@@V?$allocator@D@2@@std@@$09$0CA@@1@11@Z$1 004301a8 f   g3dlite:fileutils.obj
 0001:0002f1b0       __unwindfunclet$?parseFilename@G3D@@YAXABV?$basic_string@DU?$char_traits@D@std@@V?$allocator@D@2@@std@@AAV23@AAV?$Array@V?$basic_string@DU?$char_traits@D@std@@V?$allocator@D@2@@std@@$09$0CA@@1@11@Z$2 004301b0 f   g3dlite:fileutils.obj
 0001:0002f1b8       __unwindfunclet$?parseFilename@G3D@@YAXABV?$basic_string@DU?$char_traits@D@std@@V?$allocator@D@2@@std@@AAV23@AAV?$Array@V?$basic_string@DU?$char_traits@D@std@@V?$allocator@D@2@@std@@$09$0CA@@1@11@Z$3 004301b8 f   g3dlite:fileutils.obj
 0001:0002f1c0       __unwindfunclet$?parseFilename@G3D@@YAXABV?$basic_string@DU?$char_traits@D@std@@V?$allocator@D@2@@std@@AAV23@AAV?$Array@V?$basic_string@DU?$char_traits@D@std@@V?$allocator@D@2@@std@@$09$0CA@@1@11@Z$4 004301c0 f   g3dlite:fileutils.obj
 0001:0002f1c8       __unwindfunclet$?parseFilename@G3D@@YAXABV?$basic_string@DU?$char_traits@D@std@@V?$allocator@D@2@@std@@AAV23@AAV?$Array@V?$basic_string@DU?$char_traits@D@std@@V?$allocator@D@2@@std@@$09$0CA@@1@11@Z$5 004301c8 f   g3dlite:fileutils.obj
 0001:0002f1d0       __unwindfunclet$?parseFilename@G3D@@YAXABV?$basic_string@DU?$char_traits@D@std@@V?$allocator@D@2@@std@@AAV23@AAV?$Array@V?$basic_string@DU?$char_traits@D@std@@V?$allocator@D@2@@std@@$09$0CA@@1@11@Z$6 004301d0 f   g3dlite:fileutils.obj
 0001:0002f1d8       __unwindfunclet$?parseFilename@G3D@@YAXABV?$basic_string@DU?$char_traits@D@std@@V?$allocator@D@2@@std@@AAV23@AAV?$Array@V?$basic_string@DU?$char_traits@D@std@@V?$allocator@D@2@@std@@$09$0CA@@1@11@Z$7 004301d8 f   g3dlite:fileutils.obj
 0001:0002f1e0       __unwindfunclet$?parseFilename@G3D@@YAXABV?$basic_string@DU?$char_traits@D@std@@V?$allocator@D@2@@std@@AAV23@AAV?$Array@V?$basic_string@DU?$char_traits@D@std@@V?$allocator@D@2@@std@@$09$0CA@@1@11@Z$8 004301e0 f   g3dlite:fileutils.obj
 0001:0002f1e8       __unwindfunclet$?parseFilename@G3D@@YAXABV?$basic_string@DU?$char_traits@D@std@@V?$allocator@D@2@@std@@AAV23@AAV?$Array@V?$basic_string@DU?$char_traits@D@std@@V?$allocator@D@2@@std@@$09$0CA@@1@11@Z$9 004301e8 f   g3dlite:fileutils.obj
 0001:0002f1f0       __unwindfunclet$?parseFilename@G3D@@YAXABV?$basic_string@DU?$char_traits@D@std@@V?$allocator@D@2@@std@@AAV23@AAV?$Array@V?$basic_string@DU?$char_traits@D@std@@V?$allocator@D@2@@std@@$09$0CA@@1@11@Z$10 004301f0 f   g3dlite:fileutils.obj
 0001:0002f1f8       __unwindfunclet$?parseFilename@G3D@@YAXABV?$basic_string@DU?$char_traits@D@std@@V?$allocator@D@2@@std@@AAV23@AAV?$Array@V?$basic_string@DU?$char_traits@D@std@@V?$allocator@D@2@@std@@$09$0CA@@1@11@Z$11 004301f8 f   g3dlite:fileutils.obj
 0001:0002f200       __unwindfunclet$?parseFilename@G3D@@YAXABV?$basic_string@DU?$char_traits@D@std@@V?$allocator@D@2@@std@@AAV23@AAV?$Array@V?$basic_string@DU?$char_traits@D@std@@V?$allocator@D@2@@std@@$09$0CA@@1@11@Z$12 00430200 f   g3dlite:fileutils.obj
 0001:0002f208       __unwindfunclet$?parseFilename@G3D@@YAXABV?$basic_string@DU?$char_traits@D@std@@V?$allocator@D@2@@std@@AAV23@AAV?$Array@V?$basic_string@DU?$char_traits@D@std@@V?$allocator@D@2@@std@@$09$0CA@@1@11@Z$13 00430208 f   g3dlite:fileutils.obj
 0001:0002f210       __ehhandler$?parseFilename@G3D@@YAXABV?$basic_string@DU?$char_traits@D@std@@V?$allocator@D@2@@std@@AAV23@AAV?$Array@V?$basic_string@DU?$char_traits@D@std@@V?$allocator@D@2@@std@@$09$0CA@@1@11@Z 00430210 f   g3dlite:fileutils.obj
 0001:0002f240       __unwindfunclet$??1Log@G3D@@UAE@XZ$0 00430240 f   g3dlite:Log.obj
 0001:0002f24b       __ehhandler$??1Log@G3D@@UAE@XZ 0043024b f   g3dlite:Log.obj
 0001:0002f270       __unwindfunclet$??0Log@G3D@@QAE@ABV?$basic_string@DU?$char_traits@D@std@@V?$allocator@D@2@@std@@H@Z$0 00430270 f   g3dlite:Log.obj
 0001:0002f27e       __unwindfunclet$??0Log@G3D@@QAE@ABV?$basic_string@DU?$char_traits@D@std@@V?$allocator@D@2@@std@@H@Z$1 0043027e f   g3dlite:Log.obj
 0001:0002f289       __unwindfunclet$??0Log@G3D@@QAE@ABV?$basic_string@DU?$char_traits@D@std@@V?$allocator@D@2@@std@@H@Z$2 00430289 f   g3dlite:Log.obj
 0001:0002f291       __unwindfunclet$??0Log@G3D@@QAE@ABV?$basic_string@DU?$char_traits@D@std@@V?$allocator@D@2@@std@@H@Z$3 00430291 f   g3dlite:Log.obj
 0001:0002f299       __unwindfunclet$??0Log@G3D@@QAE@ABV?$basic_string@DU?$char_traits@D@std@@V?$allocator@D@2@@std@@H@Z$4 00430299 f   g3dlite:Log.obj
 0001:0002f2a4       __unwindfunclet$??0Log@G3D@@QAE@ABV?$basic_string@DU?$char_traits@D@std@@V?$allocator@D@2@@std@@H@Z$5 004302a4 f   g3dlite:Log.obj
 0001:0002f2c6       __unwindfunclet$??0Log@G3D@@QAE@ABV?$basic_string@DU?$char_traits@D@std@@V?$allocator@D@2@@std@@H@Z$6 004302c6 f   g3dlite:Log.obj
 0001:0002f2e5       __unwindfunclet$??0Log@G3D@@QAE@ABV?$basic_string@DU?$char_traits@D@std@@V?$allocator@D@2@@std@@H@Z$7 004302e5 f   g3dlite:Log.obj
 0001:0002f2ed       __unwindfunclet$??0Log@G3D@@QAE@ABV?$basic_string@DU?$char_traits@D@std@@V?$allocator@D@2@@std@@H@Z$8 004302ed f   g3dlite:Log.obj
 0001:0002f2f8       __unwindfunclet$??0Log@G3D@@QAE@ABV?$basic_string@DU?$char_traits@D@std@@V?$allocator@D@2@@std@@H@Z$9 004302f8 f   g3dlite:Log.obj
 0001:0002f303       __ehhandler$??0Log@G3D@@QAE@ABV?$basic_string@DU?$char_traits@D@std@@V?$allocator@D@2@@std@@H@Z 00430303 f   g3dlite:Log.obj
 0001:0002f330       __unwindfunclet$?common@Log@G3D@@SAPAV12@XZ$0 00430330 f   g3dlite:Log.obj
 0001:0002f33b       __unwindfunclet$?common@Log@G3D@@SAPAV12@XZ$1 0043033b f   g3dlite:Log.obj
 0001:0002f354       __ehhandler$?common@Log@G3D@@SAPAV12@XZ 00430354 f   g3dlite:Log.obj
 0001:0002f370       __unwindfunclet$??1sentry@?$basic_ostream@DU?$char_traits@D@std@@@std@@QAE@XZ$0 00430370 f    CIL library: CIL module
 0001:0002f378       __ehhandler$??1sentry@?$basic_ostream@DU?$char_traits@D@std@@@std@@QAE@XZ 00430378 f    CIL library: CIL module
 0001:0002f3a0       __unwindfunclet$?canRemoveVertex@@YA_NPAVrcContext@@AAUrcPolyMesh@@G@Z$0 004303a0 f    CIL library: CIL module
 0001:0002f3a8       __ehhandler$?canRemoveVertex@@YA_NPAVrcContext@@AAUrcPolyMesh@@G@Z 004303a8 f    CIL library: CIL module
 0001:0002f3d0       __ehhandler$?_Insert_n@?$vector@V?$_List_iterator@V?$_List_val@U?$pair@$$CBII@std@@V?$allocator@U?$pair@$$CBII@std@@@2@@std@@@std@@V?$allocator@V?$_List_iterator@V?$_List_val@U?$pair@$$CBII@std@@V?$allocator@U?$pair@$$CBII@std@@@2@@std@@@std@@@2@@std@@IAEXV?$_Vector_const_iterator@V?$_Vector_val@V?$_List_iterator@V?$_List_val@U?$pair@$$CBII@std@@V?$allocator@U?$pair@$$CBII@std@@@2@@std@@@std@@V?$allocator@V?$_List_iterator@V?$_List_val@U?$pair@$$CBII@std@@V?$allocator@U?$pair@$$CBII@std@@@2@@std@@@std@@@2@@std@@@2@IABV?$_List_iterator@V?$_List_val@U?$pair@$$CBII@std@@V?$allocator@U?$pair@$$CBII@std@@@2@@std@@@2@@Z 004303d0 f    CIL library: CIL module
 0001:0002f3d0       __ehhandler$?_Insert_n@?$vector@V?$_List_iterator@V?$_List_val@U?$pair@$$CBIPAVStaticMapTree@VMAP@@@std@@V?$allocator@U?$pair@$$CBIPAVStaticMapTree@VMAP@@@std@@@2@@std@@@std@@V?$allocator@V?$_List_iterator@V?$_List_val@U?$pair@$$CBIPAVStaticMapTree@VMAP@@@std@@V?$allocator@U?$pair@$$CBIPAVStaticMapTree@VMAP@@@std@@@2@@std@@@std@@@2@@std@@IAEXV?$_Vector_const_iterator@V?$_Vector_val@V?$_List_iterator@V?$_List_val@U?$pair@$$CBIPAVStaticMapTree@VMAP@@@std@@V?$allocator@U?$pair@$$CBIPAVStaticMapTree@VMAP@@@std@@@2@@std@@@std@@V?$allocator@V?$_List_iterator@V?$_List_val@U?$pair@$$CBIPAVStaticMapTree@VMAP@@@std@@V?$allocator@U?$pair@$$CBIPAVStaticMapTree@VMAP@@@std@@@2@@std@@@std@@@2@@std@@@2@IABV?$_List_iterator@V?$_List_val@U?$pair@$$CBIPAVStaticMapTree@VMAP@@@std@@V?$allocator@U?$pair@$$CBIPAVStaticMapTree@VMAP@@@std@@@2@@std@@@2@@Z 004303d0 f    CIL library: CIL module
 0001:0002f3d0       __ehhandler$?_Insert_n@?$vector@V?$_List_iterator@V?$_List_val@U?$pair@$$CBV?$basic_string@DU?$char_traits@D@std@@V?$allocator@D@2@@std@@VManagedModel@VMAP@@@std@@V?$allocator@U?$pair@$$CBV?$basic_string@DU?$char_traits@D@std@@V?$allocator@D@2@@std@@VManagedModel@VMAP@@@std@@@2@@std@@@std@@V?$allocator@V?$_List_iterator@V?$_List_val@U?$pair@$$CBV?$basic_string@DU?$char_traits@D@std@@V?$allocator@D@2@@std@@VManagedModel@VMAP@@@std@@V?$allocator@U?$pair@$$CBV?$basic_string@DU?$char_traits@D@std@@V?$allocator@D@2@@std@@VManagedModel@VMAP@@@std@@@2@@std@@@std@@@2@@std@@IAEXV?$_Vector_const_iterator@V?$_Vector_val@V?$_List_iterator@V?$_List_val@U?$pair@$$CBV?$basic_string@DU?$char_traits@D@std@@V?$allocator@D@2@@std@@VManagedModel@VMAP@@@std@@V?$allocator@U?$pair@$$CBV?$basic_string@DU?$char_traits@D@std@@V?$allocator@D@2@@std@@VManagedModel@VMAP@@@std@@@2@@std@@@std@@V?$allocator@V?$_List_iterator@V?$_List_val@U?$pair@$$CBV?$basic_string@DU?$char_traits@D@std@@V?$allocator@D@2@@std@@VManagedModel@VMAP@@@std@@V?$allocator@U?$pair@$$CBV?$basic_string@DU?$char_traits@D@std@@V?$allocator@D@2@@std@@VManagedModel@VMAP@@@std@@@2@@std@@@std@@@2@@std@@@2@IABV?$_List_iterator@V?$_List_val@U?$pair@$$CBV?$basic_string@DU?$char_traits@D@std@@V?$allocator@D@2@@std@@VManagedModel@VMAP@@@std@@V?$allocator@U?$pair@$$CBV?$basic_string@DU?$char_traits@D@std@@V?$allocator@D@2@@std@@VManagedModel@VMAP@@@std@@@2@@std@@@2@@Z 004303d0 f    CIL library: CIL module
 0001:0002f3d0       __ehhandler$?_Insert_n@?$vector@V?$_List_iterator@V?$_List_val@U?$pair@$$CBI_N@std@@V?$allocator@U?$pair@$$CBI_N@std@@@2@@std@@@std@@V?$allocator@V?$_List_iterator@V?$_List_val@U?$pair@$$CBI_N@std@@V?$allocator@U?$pair@$$CBI_N@std@@@2@@std@@@std@@@2@@std@@IAEXV?$_Vector_const_iterator@V?$_Vector_val@V?$_List_iterator@V?$_List_val@U?$pair@$$CBI_N@std@@V?$allocator@U?$pair@$$CBI_N@std@@@2@@std@@@std@@V?$allocator@V?$_List_iterator@V?$_List_val@U?$pair@$$CBI_N@std@@V?$allocator@U?$pair@$$CBI_N@std@@@2@@std@@@std@@@2@@std@@@2@IABV?$_List_iterator@V?$_List_val@U?$pair@$$CBI_N@std@@V?$allocator@U?$pair@$$CBI_N@std@@@2@@std@@@2@@Z 004303d0 f    CIL library: CIL module
 0001:0002f3f0       __unwindfunclet$??$?6DU?$char_traits@D@std@@V?$allocator@D@1@@std@@YAAAV?$basic_ostream@DU?$char_traits@D@std@@@0@AAV10@ABV?$basic_string@DU?$char_traits@D@std@@V?$allocator@D@2@@0@@Z$3 004303f0 f    CIL library: CIL module
 0001:0002f3f8       __unwindfunclet$??$?6DU?$char_traits@D@std@@V?$allocator@D@1@@std@@YAAAV?$basic_ostream@DU?$char_traits@D@std@@@0@AAV10@ABV?$basic_string@DU?$char_traits@D@std@@V?$allocator@D@2@@0@@Z$2 004303f8 f    CIL library: CIL module
 0001:0002f400       __unwindfunclet$??$?6DU?$char_traits@D@std@@V?$allocator@D@1@@std@@YAAAV?$basic_ostream@DU?$char_traits@D@std@@@0@AAV10@ABV?$basic_string@DU?$char_traits@D@std@@V?$allocator@D@2@@0@@Z$4 00430400 f    CIL library: CIL module
 0001:0002f408       __ehhandler$??$?6DU?$char_traits@D@std@@V?$allocator@D@1@@std@@YAAAV?$basic_ostream@DU?$char_traits@D@std@@@0@AAV10@ABV?$basic_string@DU?$char_traits@D@std@@V?$allocator@D@2@@0@@Z 00430408 f    CIL library: CIL module
 0001:0002f430       __unwindfunclet$??$?6U?$char_traits@D@std@@@std@@YAAAV?$basic_ostream@DU?$char_traits@D@std@@@0@AAV10@PBD@Z$3 00430430 f    CIL library: CIL module
 0001:0002f438       __unwindfunclet$??$?6U?$char_traits@D@std@@@std@@YAAAV?$basic_ostream@DU?$char_traits@D@std@@@0@AAV10@PBD@Z$2 00430438 f    CIL library: CIL module
 0001:0002f440       __unwindfunclet$??$?6U?$char_traits@D@std@@@std@@YAAAV?$basic_ostream@DU?$char_traits@D@std@@@0@AAV10@PBD@Z$4 00430440 f    CIL library: CIL module
 0001:0002f448       __ehhandler$??$?6U?$char_traits@D@std@@@std@@YAAAV?$basic_ostream@DU?$char_traits@D@std@@@0@AAV10@PBD@Z 00430448 f    CIL library: CIL module
 0001:0002f470       __unwindfunclet$??_D?$basic_stringstream@DU?$char_traits@D@std@@V?$allocator@D@2@@std@@QAEXXZ$0 00430470 f    CIL library: CIL module
 0001:0002f47c       __ehhandler$??_D?$basic_stringstream@DU?$char_traits@D@std@@V?$allocator@D@2@@std@@QAEXXZ 0043047c f    CIL library: CIL module
 0001:0002f4a0       __unwindfunclet$?rcMergePolyMeshes@@YA_NPAVrcContext@@PAPAUrcPolyMesh@@HAAU2@@Z$0 004304a0 f    CIL library: CIL module
 0001:0002f4a8       __unwindfunclet$?rcMergePolyMeshes@@YA_NPAVrcContext@@PAPAUrcPolyMesh@@HAAU2@@Z$1 004304a8 f    CIL library: CIL module
 0001:0002f4b0       __unwindfunclet$?rcMergePolyMeshes@@YA_NPAVrcContext@@PAPAUrcPolyMesh@@HAAU2@@Z$2 004304b0 f    CIL library: CIL module
 0001:0002f4b8       __ehhandler$?rcMergePolyMeshes@@YA_NPAVrcContext@@PAPAUrcPolyMesh@@HAAU2@@Z 004304b8 f    CIL library: CIL module
 0001:0002f4e0       __unwindfunclet$??1?$Array@H$09$0CA@@G3D@@QAE@XZ$0 004304e0 f    CIL library: CIL module
 0001:0002f4e0       __unwindfunclet$??1?$Array@M$09$0CA@@G3D@@QAE@XZ$0 004304e0 f    CIL library: CIL module
 0001:0002f4eb       __ehhandler$??1?$Array@M$09$0CA@@G3D@@QAE@XZ 004304eb f    CIL library: CIL module
 0001:0002f4eb       __ehhandler$??1?$Array@H$09$0CA@@G3D@@QAE@XZ 004304eb f    CIL library: CIL module
 0001:0002f510       __unwindfunclet$??1?$map@IPAV?$set@IU?$less@I@std@@V?$allocator@I@2@@std@@U?$less@I@2@V?$allocator@U?$pair@$$CBIPAV?$set@IU?$less@I@std@@V?$allocator@I@2@@std@@@std@@@2@@std@@QAE@XZ$1 00430510 f    CIL library: CIL module
 0001:0002f510       __unwindfunclet$??1?$map@HHU?$less@H@std@@V?$allocator@U?$pair@$$CBHH@std@@@2@@std@@QAE@XZ$1 00430510 f    CIL library: CIL module
 0001:0002f518       __ehhandler$??1?$map@HHU?$less@H@std@@V?$allocator@U?$pair@$$CBHH@std@@@2@@std@@QAE@XZ 00430518 f    CIL library: CIL module
 0001:0002f518       __ehhandler$??1?$map@IPAV?$set@IU?$less@I@std@@V?$allocator@I@2@@std@@U?$less@I@2@V?$allocator@U?$pair@$$CBIPAV?$set@IU?$less@I@std@@V?$allocator@I@2@@std@@@std@@@2@@std@@QAE@XZ 00430518 f    CIL library: CIL module
 0001:0002f540       __unwindfunclet$??1MeshData@MMAP@@QAE@XZ$0 00430540 f    CIL library: CIL module
 0001:0002f54a       __unwindfunclet$??1MeshData@MMAP@@QAE@XZ$1 0043054a f    CIL library: CIL module
 0001:0002f557       __unwindfunclet$??1MeshData@MMAP@@QAE@XZ$2 00430557 f    CIL library: CIL module
 0001:0002f564       __unwindfunclet$??1MeshData@MMAP@@QAE@XZ$3 00430564 f    CIL library: CIL module
 0001:0002f571       __unwindfunclet$??1MeshData@MMAP@@QAE@XZ$5 00430571 f    CIL library: CIL module
 0001:0002f57c       __unwindfunclet$??1MeshData@MMAP@@QAE@XZ$6 0043057c f    CIL library: CIL module
 0001:0002f587       __unwindfunclet$??1MeshData@MMAP@@QAE@XZ$7 00430587 f    CIL library: CIL module
 0001:0002f592       __unwindfunclet$??1MeshData@MMAP@@QAE@XZ$8 00430592 f    CIL library: CIL module
 0001:0002f59d       __unwindfunclet$??1MeshData@MMAP@@QAE@XZ$9 0043059d f    CIL library: CIL module
 0001:0002f5a8       __ehhandler$??1MeshData@MMAP@@QAE@XZ 004305a8 f    CIL library: CIL module
 0001:0002f5d0       __unwindfunclet$?getTileList@MapBuilder@MMAP@@AAEPAV?$set@IU?$less@I@std@@V?$allocator@I@2@@std@@I@Z$0 004305d0 f    CIL library: CIL module
 0001:0002f5dc       __ehhandler$?getTileList@MapBuilder@MMAP@@AAEPAV?$set@IU?$less@I@std@@V?$allocator@I@2@@std@@I@Z 004305dc f    CIL library: CIL module
 0001:0002f600       __ehhandler$??0?$vector@VMeshTriangle@VMAP@@V?$allocator@VMeshTriangle@VMAP@@@std@@@std@@QAE@ABV01@@Z 00430600 f    CIL library: CIL module
 0001:0002f600       __ehhandler$??0?$vector@VVector3@G3D@@V?$allocator@VVector3@G3D@@@std@@@std@@QAE@ABV01@@Z 00430600 f    CIL library: CIL module
 0001:0002f620       __unwindfunclet$??0?$_Hash@V?$_Umap_traits@V?$basic_string@DU?$char_traits@D@std@@V?$allocator@D@2@@std@@VManagedModel@VMAP@@V?$_Hash_compare@V?$basic_string@DU?$char_traits@D@std@@V?$allocator@D@2@@std@@V?$hash@V?$basic_string@DU?$char_traits@D@std@@V?$allocator@D@2@@std@@@2@U?$equal_to@V?$basic_string@DU?$char_traits@D@std@@V?$allocator@D@2@@std@@@2@@2@V?$allocator@U?$pair@$$CBV?$basic_string@DU?$char_traits@D@std@@V?$allocator@D@2@@std@@VManagedModel@VMAP@@@std@@@2@$0A@@tr1@std@@@std@@QAE@ABV?$_Hash_compare@V?$basic_string@DU?$char_traits@D@std@@V?$allocator@D@2@@std@@V?$hash@V?$basic_string@DU?$char_traits@D@std@@V?$allocator@D@2@@std@@@2@U?$equal_to@V?$basic_string@DU?$char_traits@D@std@@V?$allocator@D@2@@std@@@2@@1@ABV?$allocator@U?$pair@$$CBV?$basic_string@DU?$char_traits@D@std@@V?$allocator@D@2@@std@@VManagedModel@VMAP@@@std@@@1@@Z$0 00430620 f    CIL library: CIL module
 0001:0002f62b       __unwindfunclet$??0?$_Hash@V?$_Umap_traits@V?$basic_string@DU?$char_traits@D@std@@V?$allocator@D@2@@std@@VManagedModel@VMAP@@V?$_Hash_compare@V?$basic_string@DU?$char_traits@D@std@@V?$allocator@D@2@@std@@V?$hash@V?$basic_string@DU?$char_traits@D@std@@V?$allocator@D@2@@std@@@2@U?$equal_to@V?$basic_string@DU?$char_traits@D@std@@V?$allocator@D@2@@std@@@2@@2@V?$allocator@U?$pair@$$CBV?$basic_string@DU?$char_traits@D@std@@V?$allocator@D@2@@std@@VManagedModel@VMAP@@@std@@@2@$0A@@tr1@std@@@std@@QAE@ABV?$_Hash_compare@V?$basic_string@DU?$char_traits@D@std@@V?$allocator@D@2@@std@@V?$hash@V?$basic_string@DU?$char_traits@D@std@@V?$allocator@D@2@@std@@@2@U?$equal_to@V?$basic_string@DU?$char_traits@D@std@@V?$allocator@D@2@@std@@@2@@1@ABV?$allocator@U?$pair@$$CBV?$basic_string@DU?$char_traits@D@std@@V?$allocator@D@2@@std@@VManagedModel@VMAP@@@std@@@1@@Z$1 0043062b f    CIL library: CIL module
 0001:0002f636       __ehhandler$??0?$_Hash@V?$_Umap_traits@V?$basic_string@DU?$char_traits@D@std@@V?$allocator@D@2@@std@@VManagedModel@VMAP@@V?$_Hash_compare@V?$basic_string@DU?$char_traits@D@std@@V?$allocator@D@2@@std@@V?$hash@V?$basic_string@DU?$char_traits@D@std@@V?$allocator@D@2@@std@@@2@U?$equal_to@V?$basic_string@DU?$char_traits@D@std@@V?$allocator@D@2@@std@@@2@@2@V?$allocator@U?$pair@$$CBV?$basic_string@DU?$char_traits@D@std@@V?$allocator@D@2@@std@@VManagedModel@VMAP@@@std@@@2@$0A@@tr1@std@@@std@@QAE@ABV?$_Hash_compare@V?$basic_string@DU?$char_traits@D@std@@V?$allocator@D@2@@std@@V?$hash@V?$basic_string@DU?$char_traits@D@std@@V?$allocator@D@2@@std@@@2@U?$equal_to@V?$basic_string@DU?$char_traits@D@std@@V?$allocator@D@2@@std@@@2@@1@ABV?$allocator@U?$pair@$$CBV?$basic_string@DU?$char_traits@D@std@@V?$allocator@D@2@@std@@VManagedModel@VMAP@@@std@@@1@@Z 00430636 f    CIL library: CIL module
 0001:0002f660       __ehhandler$?reserve@?$vector@VMeshTriangle@VMAP@@V?$allocator@VMeshTriangle@VMAP@@@std@@@std@@QAEXI@Z 00430660 f    CIL library: CIL module
 0001:0002f660       __ehhandler$?reserve@?$vector@VVector3@G3D@@V?$allocator@VVector3@G3D@@@std@@@std@@QAEXI@Z 00430660 f    CIL library: CIL module
 0001:0002f680       __ehhandler$?_Copy@?$basic_string@DU?$char_traits@D@std@@V?$allocator@D@2@@std@@QAEXII@Z 00430680 f    CIL library: CIL module
 0001:0002f6a0       __unwindfunclet$??0?$_Hash@V?$_Umap_traits@IIV?$_Hash_compare@IV?$hash@I@std@@U?$equal_to@I@2@@std@@V?$allocator@U?$pair@$$CBII@std@@@2@$0A@@tr1@std@@@std@@QAE@ABV?$_Hash_compare@IV?$hash@I@std@@U?$equal_to@I@2@@1@ABV?$allocator@U?$pair@$$CBII@std@@@1@@Z$0 004306a0 f    CIL library: CIL module
 0001:0002f6a0       __unwindfunclet$??0?$_Hash@V?$_Umap_traits@IPAVStaticMapTree@VMAP@@V?$_Hash_compare@IV?$hash@I@std@@U?$equal_to@I@2@@std@@V?$allocator@U?$pair@$$CBIPAVStaticMapTree@VMAP@@@std@@@4@$0A@@tr1@std@@@std@@QAE@ABV?$_Hash_compare@IV?$hash@I@std@@U?$equal_to@I@2@@1@ABV?$allocator@U?$pair@$$CBIPAVStaticMapTree@VMAP@@@std@@@1@@Z$0 004306a0 f    CIL library: CIL module
 0001:0002f6a0       __unwindfunclet$??0?$_Hash@V?$_Umap_traits@I_NV?$_Hash_compare@IV?$hash@I@std@@U?$equal_to@I@2@@std@@V?$allocator@U?$pair@$$CBI_N@std@@@2@$0A@@tr1@std@@@std@@QAE@ABV?$_Hash_compare@IV?$hash@I@std@@U?$equal_to@I@2@@1@ABV?$allocator@U?$pair@$$CBI_N@std@@@1@@Z$0 004306a0 f    CIL library: CIL module
 0001:0002f6ab       __unwindfunclet$??0?$_Hash@V?$_Umap_traits@IPAVStaticMapTree@VMAP@@V?$_Hash_compare@IV?$hash@I@std@@U?$equal_to@I@2@@std@@V?$allocator@U?$pair@$$CBIPAVStaticMapTree@VMAP@@@std@@@4@$0A@@tr1@std@@@std@@QAE@ABV?$_Hash_compare@IV?$hash@I@std@@U?$equal_to@I@2@@1@ABV?$allocator@U?$pair@$$CBIPAVStaticMapTree@VMAP@@@std@@@1@@Z$1 004306ab f    CIL library: CIL module
 0001:0002f6ab       __unwindfunclet$??0?$_Hash@V?$_Umap_traits@IIV?$_Hash_compare@IV?$hash@I@std@@U?$equal_to@I@2@@std@@V?$allocator@U?$pair@$$CBII@std@@@2@$0A@@tr1@std@@@std@@QAE@ABV?$_Hash_compare@IV?$hash@I@std@@U?$equal_to@I@2@@1@ABV?$allocator@U?$pair@$$CBII@std@@@1@@Z$1 004306ab f    CIL library: CIL module
 0001:0002f6ab       __unwindfunclet$??0?$_Hash@V?$_Umap_traits@I_NV?$_Hash_compare@IV?$hash@I@std@@U?$equal_to@I@2@@std@@V?$allocator@U?$pair@$$CBI_N@std@@@2@$0A@@tr1@std@@@std@@QAE@ABV?$_Hash_compare@IV?$hash@I@std@@U?$equal_to@I@2@@1@ABV?$allocator@U?$pair@$$CBI_N@std@@@1@@Z$1 004306ab f    CIL library: CIL module
 0001:0002f6b6       __ehhandler$??0?$_Hash@V?$_Umap_traits@I_NV?$_Hash_compare@IV?$hash@I@std@@U?$equal_to@I@2@@std@@V?$allocator@U?$pair@$$CBI_N@std@@@2@$0A@@tr1@std@@@std@@QAE@ABV?$_Hash_compare@IV?$hash@I@std@@U?$equal_to@I@2@@1@ABV?$allocator@U?$pair@$$CBI_N@std@@@1@@Z 004306b6 f    CIL library: CIL module
 0001:0002f6b6       __ehhandler$??0?$_Hash@V?$_Umap_traits@IIV?$_Hash_compare@IV?$hash@I@std@@U?$equal_to@I@2@@std@@V?$allocator@U?$pair@$$CBII@std@@@2@$0A@@tr1@std@@@std@@QAE@ABV?$_Hash_compare@IV?$hash@I@std@@U?$equal_to@I@2@@1@ABV?$allocator@U?$pair@$$CBII@std@@@1@@Z 004306b6 f    CIL library: CIL module
 0001:0002f6b6       __ehhandler$??0?$_Hash@V?$_Umap_traits@IPAVStaticMapTree@VMAP@@V?$_Hash_compare@IV?$hash@I@std@@U?$equal_to@I@2@@std@@V?$allocator@U?$pair@$$CBIPAVStaticMapTree@VMAP@@@std@@@4@$0A@@tr1@std@@@std@@QAE@ABV?$_Hash_compare@IV?$hash@I@std@@U?$equal_to@I@2@@1@ABV?$allocator@U?$pair@$$CBIPAVStaticMapTree@VMAP@@@std@@@1@@Z 004306b6 f    CIL library: CIL module
 0001:0002f6e0       __unwindfunclet$??_G?$basic_stringstream@DU?$char_traits@D@std@@V?$allocator@D@2@@std@@UAEPAXI@Z$0 004306e0 f    CIL library: CIL module
 0001:0002f6ec       __ehhandler$??_G?$basic_stringstream@DU?$char_traits@D@std@@V?$allocator@D@2@@std@@UAEPAXI@Z 004306ec f    CIL library: CIL module
 0001:0002f710       __unwindfunclet$??0?$basic_stringstream@DU?$char_traits@D@std@@V?$allocator@D@2@@std@@QAE@H@Z$0 00430710 f    CIL library: CIL module
 0001:0002f72d       __unwindfunclet$??0?$basic_stringstream@DU?$char_traits@D@std@@V?$allocator@D@2@@std@@QAE@H@Z$1 0043072d f    CIL library: CIL module
 0001:0002f739       __unwindfunclet$??0?$basic_stringstream@DU?$char_traits@D@std@@V?$allocator@D@2@@std@@QAE@H@Z$3 00430739 f    CIL library: CIL module
 0001:0002f742       __ehhandler$??0?$basic_stringstream@DU?$char_traits@D@std@@V?$allocator@D@2@@std@@QAE@H@Z 00430742 f    CIL library: CIL module
 0001:0002f760       __unwindfunclet$??0StaticMapTree@VMAP@@QAE@IABV?$basic_string@DU?$char_traits@D@std@@V?$allocator@D@2@@std@@@Z$0 00430760 f    CIL library: CIL module
 0001:0002f760       __unwindfunclet$??1StaticMapTree@VMAP@@QAE@XZ$0 00430760 f    CIL library: CIL module
 0001:0002f76b       __unwindfunclet$??1StaticMapTree@VMAP@@QAE@XZ$1 0043076b f    CIL library: CIL module
 0001:0002f76b       __unwindfunclet$??0StaticMapTree@VMAP@@QAE@IABV?$basic_string@DU?$char_traits@D@std@@V?$allocator@D@2@@std@@@Z$1 0043076b f    CIL library: CIL module
 0001:0002f776       __unwindfunclet$??0StaticMapTree@VMAP@@QAE@IABV?$basic_string@DU?$char_traits@D@std@@V?$allocator@D@2@@std@@@Z$2 00430776 f    CIL library: CIL module
 0001:0002f776       __unwindfunclet$??1StaticMapTree@VMAP@@QAE@XZ$2 00430776 f    CIL library: CIL module
 0001:0002f781       __unwindfunclet$??1StaticMapTree@VMAP@@QAE@XZ$3 00430781 f    CIL library: CIL module
 0001:0002f781       __unwindfunclet$??0StaticMapTree@VMAP@@QAE@IABV?$basic_string@DU?$char_traits@D@std@@V?$allocator@D@2@@std@@@Z$3 00430781 f    CIL library: CIL module
 0001:0002f78f       __ehhandler$??1StaticMapTree@VMAP@@QAE@XZ 0043078f f    CIL library: CIL module
 0001:0002f78f       __ehhandler$??0StaticMapTree@VMAP@@QAE@IABV?$basic_string@DU?$char_traits@D@std@@V?$allocator@D@2@@std@@@Z 0043078f f    CIL library: CIL module
 0001:0002f7b0       __unwindfunclet$?mergeRegions@@YA_NAAUrcRegion@@0@Z$0 004307b0 f    CIL library: CIL module
 0001:0002f7b8       __ehhandler$?mergeRegions@@YA_NAAUrcRegion@@0@Z 004307b8 f    CIL library: CIL module
 0001:0002f7e0       __unwindfunclet$?rcBuildContours@@YA_NPAVrcContext@@AAUrcCompactHeightfield@@MHAAUrcContourSet@@H@Z$0 004307e0 f    CIL library: CIL module
 0001:0002f7e8       __unwindfunclet$?rcBuildContours@@YA_NPAVrcContext@@AAUrcCompactHeightfield@@MHAAUrcContourSet@@H@Z$1 004307e8 f    CIL library: CIL module
 0001:0002f7f0       __unwindfunclet$?rcBuildContours@@YA_NPAVrcContext@@AAUrcCompactHeightfield@@MHAAUrcContourSet@@H@Z$2 004307f0 f    CIL library: CIL module
 0001:0002f7f8       __ehhandler$?rcBuildContours@@YA_NPAVrcContext@@AAUrcCompactHeightfield@@MHAAUrcContourSet@@H@Z 004307f8 f    CIL library: CIL module
 0001:0002f820       __ehhandler$??$_Insert@V?$_List_const_iterator@V?$_List_val@U?$pair@$$CBIPAVStaticMapTree@VMAP@@@std@@V?$allocator@U?$pair@$$CBIPAVStaticMapTree@VMAP@@@std@@@2@@std@@@std@@@?$list@U?$pair@$$CBIPAVStaticMapTree@VMAP@@@std@@V?$allocator@U?$pair@$$CBIPAVStaticMapTree@VMAP@@@std@@@2@@std@@QAEXV?$_List_const_iterator@V?$_List_val@U?$pair@$$CBIPAVStaticMapTree@VMAP@@@std@@V?$allocator@U?$pair@$$CBIPAVStaticMapTree@VMAP@@@std@@@2@@std@@@1@00Uforward_iterator_tag@1@@Z 00430820 f    CIL library: CIL module
 0001:0002f840       __unwindfunclet$?transform@MapBuilder@MMAP@@AAEXV?$vector@VVector3@G3D@@V?$allocator@VVector3@G3D@@@std@@@std@@AAV34@MVMatrix3@G3D@@VVector3@6@@Z$0 00430840 f    CIL library: CIL module
 0001:0002f848       __ehhandler$?transform@MapBuilder@MMAP@@AAEXV?$vector@VVector3@G3D@@V?$allocator@VVector3@G3D@@@std@@@std@@AAV34@MVMatrix3@G3D@@VVector3@6@@Z 00430848 f    CIL library: CIL module
 0001:0002f870       __unwindfunclet$??1MapBuilder@MMAP@@QAE@XZ$0 00430870 f    CIL library: CIL module
 0001:0002f87d       __unwindfunclet$??1MapBuilder@MMAP@@QAE@XZ$2 0043087d f    CIL library: CIL module
 0001:0002f885       __unwindfunclet$??1MapBuilder@MMAP@@QAE@XZ$4 00430885 f    CIL library: CIL module
 0001:0002f88d       __ehhandler$??1MapBuilder@MMAP@@QAE@XZ 0043088d f    CIL library: CIL module
 0001:0002f8b0       __ehhandler$??0?$vector@IV?$allocator@I@std@@@std@@QAE@ABV01@@Z 004308b0 f    CIL library: CIL module
 0001:0002f8d0       __unwindfunclet$??0GroupModel@VMAP@@QAE@ABV01@@Z$0 004308d0 f    CIL library: CIL module
 0001:0002f8db       __unwindfunclet$??0GroupModel@VMAP@@QAE@ABV01@@Z$1 004308db f    CIL library: CIL module
 0001:0002f8e6       __unwindfunclet$??0GroupModel@VMAP@@QAE@ABV01@@Z$4 004308e6 f    CIL library: CIL module
 0001:0002f8ee       __unwindfunclet$??0GroupModel@VMAP@@QAE@ABV01@@Z$2 004308ee f    CIL library: CIL module
 0001:0002f8f9       __unwindfunclet$??0GroupModel@VMAP@@QAE@ABV01@@Z$3 004308f9 f    CIL library: CIL module
 0001:0002f905       __ehhandler$??0GroupModel@VMAP@@QAE@ABV01@@Z 00430905 f    CIL library: CIL module
 0001:0002f920       __unwindfunclet$??0ModelInstance@VMAP@@QAE@ABVModelSpawn@1@PAVWorldModel@1@@Z$0 00430920 f    CIL library: CIL module
 0001:0002f928       __ehhandler$??0ModelInstance@VMAP@@QAE@ABVModelSpawn@1@PAVWorldModel@1@@Z 00430928 f    CIL library: CIL module
 0001:0002f950       __unwindfunclet$?filterSmallRegions@@YA_NPAVrcContext@@HHAAGAAUrcCompactHeightfield@@PAG@Z$1 00430950 f    CIL library: CIL module
 0001:0002f958       __unwindfunclet$?filterSmallRegions@@YA_NPAVrcContext@@HHAAGAAUrcCompactHeightfield@@PAG@Z$2 00430958 f    CIL library: CIL module
 0001:0002f960       __unwindfunclet$?filterSmallRegions@@YA_NPAVrcContext@@HHAAGAAUrcCompactHeightfield@@PAG@Z$3 00430960 f    CIL library: CIL module
 0001:0002f96b       __ehhandler$?filterSmallRegions@@YA_NPAVrcContext@@HHAAGAAUrcCompactHeightfield@@PAG@Z 0043096b f    CIL library: CIL module
 0001:0002f990       __unwindfunclet$??$_Uninit_copy@PAVGroupModel@VMAP@@PAV12@V?$allocator@VGroupModel@VMAP@@@std@@@std@@YAPAVGroupModel@VMAP@@PAV12@00AAV?$allocator@VGroupModel@VMAP@@@0@U_Nonscalar_ptr_iterator_tag@0@@Z$2 00430990 f    CIL library: CIL module
 0001:0002f990       __unwindfunclet$??$_Uninit_move@PAVGroupModel@VMAP@@PAV12@V?$allocator@VGroupModel@VMAP@@@std@@V12@@std@@YAPAVGroupModel@VMAP@@PAV12@00AAV?$allocator@VGroupModel@VMAP@@@0@0U_Nonscalar_ptr_iterator_tag@0@@Z$2 00430990 f    CIL library: CIL module
 0001:0002f9a1       __ehhandler$??$_Uninit_copy@PAVGroupModel@VMAP@@PAV12@V?$allocator@VGroupModel@VMAP@@@std@@@std@@YAPAVGroupModel@VMAP@@PAV12@00AAV?$allocator@VGroupModel@VMAP@@@0@U_Nonscalar_ptr_iterator_tag@0@@Z 004309a1 f    CIL library: CIL module
 0001:0002f9a1       __ehhandler$??$_Uninit_move@PAVGroupModel@VMAP@@PAV12@V?$allocator@VGroupModel@VMAP@@@std@@V12@@std@@YAPAVGroupModel@VMAP@@PAV12@00AAV?$allocator@VGroupModel@VMAP@@@0@0U_Nonscalar_ptr_iterator_tag@0@@Z 004309a1 f    CIL library: CIL module
 0001:0002f9c0       __unwindfunclet$??$_Uninit_def_fill_n@PAVGroupModel@VMAP@@IV12@V?$allocator@VGroupModel@VMAP@@@std@@V12@@std@@YAXPAVGroupModel@VMAP@@IPBV12@AAV?$allocator@VGroupModel@VMAP@@@0@0U_Nonscalar_ptr_iterator_tag@0@@Z$2 004309c0 f    CIL library: CIL module
 0001:0002f9cb       __unwindfunclet$??$_Uninit_def_fill_n@PAVGroupModel@VMAP@@IV12@V?$allocator@VGroupModel@VMAP@@@std@@V12@@std@@YAXPAVGroupModel@VMAP@@IPBV12@AAV?$allocator@VGroupModel@VMAP@@@0@0U_Nonscalar_ptr_iterator_tag@0@@Z$3 004309cb f    CIL library: CIL module
 0001:0002f9dc       __ehhandler$??$_Uninit_def_fill_n@PAVGroupModel@VMAP@@IV12@V?$allocator@VGroupModel@VMAP@@@std@@V12@@std@@YAXPAVGroupModel@VMAP@@IPBV12@AAV?$allocator@VGroupModel@VMAP@@@0@0U_Nonscalar_ptr_iterator_tag@0@@Z 004309dc f    CIL library: CIL module
 0001:0002fa00       __unwindfunclet$??$_Buynode@U?$pair@V?$basic_string@DU?$char_traits@D@std@@V?$allocator@D@2@@std@@VManagedModel@VMAP@@@std@@@?$_List_val@U?$pair@$$CBV?$basic_string@DU?$char_traits@D@std@@V?$allocator@D@2@@std@@VManagedModel@VMAP@@@std@@V?$allocator@U?$pair@$$CBV?$basic_string@DU?$char_traits@D@std@@V?$allocator@D@2@@std@@VManagedModel@VMAP@@@std@@@2@@std@@QAEPAU_Node@?$_List_nod@U?$pair@$$CBV?$basic_string@DU?$char_traits@D@std@@V?$allocator@D@2@@std@@VManagedModel@VMAP@@@std@@V?$allocator@U?$pair@$$CBV?$basic_string@DU?$char_traits@D@std@@V?$allocator@D@2@@std@@VManagedModel@VMAP@@@std@@@2@@1@PAU231@0$$QAU?$pair@V?$basic_string@DU?$char_traits@D@std@@V?$allocator@D@2@@std@@VManagedModel@VMAP@@@1@@Z$2 00430a00 f    CIL library: CIL module
 0001:0002fa11       __ehhandler$??$_Buynode@U?$pair@V?$basic_string@DU?$char_traits@D@std@@V?$allocator@D@2@@std@@VManagedModel@VMAP@@@std@@@?$_List_val@U?$pair@$$CBV?$basic_string@DU?$char_traits@D@std@@V?$allocator@D@2@@std@@VManagedModel@VMAP@@@std@@V?$allocator@U?$pair@$$CBV?$basic_string@DU?$char_traits@D@std@@V?$allocator@D@2@@std@@VManagedModel@VMAP@@@std@@@2@@std@@QAEPAU_Node@?$_List_nod@U?$pair@$$CBV?$basic_string@DU?$char_traits@D@std@@V?$allocator@D@2@@std@@VManagedModel@VMAP@@@std@@V?$allocator@U?$pair@$$CBV?$basic_string@DU?$char_traits@D@std@@V?$allocator@D@2@@std@@VManagedModel@VMAP@@@std@@@2@@1@PAU231@0$$QAU?$pair@V?$basic_string@DU?$char_traits@D@std@@V?$allocator@D@2@@std@@VManagedModel@VMAP@@@1@@Z 00430a11 f    CIL library: CIL module
 0001:0002fa30       __unwindfunclet$??1VMapManager2@VMAP@@UAE@XZ$0 00430a30 f    CIL library: CIL module
 0001:0002fa38       __unwindfunclet$??1VMapManager2@VMAP@@UAE@XZ$1 00430a38 f    CIL library: CIL module
 0001:0002fa43       __unwindfunclet$??1VMapManager2@VMAP@@UAE@XZ$2 00430a43 f    CIL library: CIL module
 0001:0002fa4e       __ehhandler$??1VMapManager2@VMAP@@UAE@XZ 00430a4e f    CIL library: CIL module
 0001:0002fa70       __ehhandler$?reserve@?$vector@VGroupModel@VMAP@@V?$allocator@VGroupModel@VMAP@@@std@@@std@@QAEXI@Z 00430a70 f    CIL library: CIL module
 0001:0002fa90       __unwindfunclet$?readFromFile@ModelSpawn@VMAP@@SA_NPAU_iobuf@@AAV12@@Z$0 00430a90 f    CIL library: CIL module
 0001:0002fa9b       __ehhandler$?readFromFile@ModelSpawn@VMAP@@SA_NPAU_iobuf@@AAV12@@Z 00430a9b f    CIL library: CIL module
 0001:0002fad0       __unwindfunclet$??$?HDU?$char_traits@D@std@@V?$allocator@D@1@@std@@YA?AV?$basic_string@DU?$char_traits@D@std@@V?$allocator@D@2@@0@ABV10@PBD@Z$0 00430ad0 f    CIL library: CIL module
 0001:0002fad0       __unwindfunclet$??$?HDU?$char_traits@D@std@@V?$allocator@D@1@@std@@YA?AV?$basic_string@DU?$char_traits@D@std@@V?$allocator@D@2@@0@ABV10@0@Z$0 00430ad0 f    CIL library: CIL module
 0001:0002fae9       __ehhandler$??$?HDU?$char_traits@D@std@@V?$allocator@D@1@@std@@YA?AV?$basic_string@DU?$char_traits@D@std@@V?$allocator@D@2@@0@ABV10@0@Z 00430ae9 f    CIL library: CIL module
 0001:0002fae9       __ehhandler$??$?HDU?$char_traits@D@std@@V?$allocator@D@1@@std@@YA?AV?$basic_string@DU?$char_traits@D@std@@V?$allocator@D@2@@0@ABV10@PBD@Z 00430ae9 f    CIL library: CIL module
 0001:0002fb10       __unwindfunclet$?str@?$basic_stringbuf@DU?$char_traits@D@std@@V?$allocator@D@2@@std@@QBE?AV?$basic_string@DU?$char_traits@D@std@@V?$allocator@D@2@@2@XZ$0 00430b10 f    CIL library: CIL module
 0001:0002fb18       __unwindfunclet$?str@?$basic_stringbuf@DU?$char_traits@D@std@@V?$allocator@D@2@@std@@QBE?AV?$basic_string@DU?$char_traits@D@std@@V?$allocator@D@2@@2@XZ$2 00430b18 f    CIL library: CIL module
 0001:0002fb20       __unwindfunclet$?str@?$basic_stringbuf@DU?$char_traits@D@std@@V?$allocator@D@2@@std@@QBE?AV?$basic_string@DU?$char_traits@D@std@@V?$allocator@D@2@@2@XZ$3 00430b20 f    CIL library: CIL module
 0001:0002fb28       __ehhandler$?str@?$basic_stringbuf@DU?$char_traits@D@std@@V?$allocator@D@2@@std@@QBE?AV?$basic_string@DU?$char_traits@D@std@@V?$allocator@D@2@@2@XZ 00430b28 f    CIL library: CIL module
 0001:0002fb50       __unwindfunclet$?getTileFileName@StaticMapTree@VMAP@@SA?AV?$basic_string@DU?$char_traits@D@std@@V?$allocator@D@2@@std@@III@Z$0 00430b50 f    CIL library: CIL module
 0001:0002fb5b       __unwindfunclet$?getTileFileName@StaticMapTree@VMAP@@SA?AV?$basic_string@DU?$char_traits@D@std@@V?$allocator@D@2@@std@@III@Z$1 00430b5b f    CIL library: CIL module
 0001:0002fb74       __unwindfunclet$?getTileFileName@StaticMapTree@VMAP@@SA?AV?$basic_string@DU?$char_traits@D@std@@V?$allocator@D@2@@std@@III@Z$2 00430b74 f    CIL library: CIL module
 0001:0002fb80       __ehhandler$?getTileFileName@StaticMapTree@VMAP@@SA?AV?$basic_string@DU?$char_traits@D@std@@V?$allocator@D@2@@std@@III@Z 00430b80 f    CIL library: CIL module
 0001:0002fba0       __unwindfunclet$?rcBuildRegions@@YA_NPAVrcContext@@AAUrcCompactHeightfield@@HHH@Z$0 00430ba0 f    CIL library: CIL module
 0001:0002fba8       __unwindfunclet$?rcBuildRegions@@YA_NPAVrcContext@@AAUrcCompactHeightfield@@HHH@Z$1 00430ba8 f    CIL library: CIL module
 0001:0002fbb0       __unwindfunclet$?rcBuildRegions@@YA_NPAVrcContext@@AAUrcCompactHeightfield@@HHH@Z$2 00430bb0 f    CIL library: CIL module
 0001:0002fbb8       __ehhandler$?rcBuildRegions@@YA_NPAVrcContext@@AAUrcCompactHeightfield@@HHH@Z 00430bb8 f    CIL library: CIL module
 0001:0002fbe0       __ehhandler$?_Copy@?$_Hash@V?$_Umap_traits@IPAVStaticMapTree@VMAP@@V?$_Hash_compare@IV?$hash@I@std@@U?$equal_to@I@2@@std@@V?$allocator@U?$pair@$$CBIPAVStaticMapTree@VMAP@@@std@@@4@$0A@@tr1@std@@@std@@IAEXABV12@@Z 00430be0 f    CIL library: CIL module
 0001:0002fc00       __unwindfunclet$?realloc@?$Array@H$09$0CA@@G3D@@AAEXH@Z$0 00430c00 f    CIL library: CIL module
 0001:0002fc19       __ehhandler$?realloc@?$Array@H$09$0CA@@G3D@@AAEXH@Z 00430c19 f    CIL library: CIL module
 0001:0002fc40       __unwindfunclet$?realloc@?$Array@M$09$0CA@@G3D@@AAEXH@Z$0 00430c40 f    CIL library: CIL module
 0001:0002fc40       __unwindfunclet$?realloc@?$Array@E$09$0CA@@G3D@@AAEXH@Z$0 00430c40 f    CIL library: CIL module
 0001:0002fc59       __ehhandler$?realloc@?$Array@M$09$0CA@@G3D@@AAEXH@Z 00430c59 f    CIL library: CIL module
 0001:0002fc59       __ehhandler$?realloc@?$Array@E$09$0CA@@G3D@@AAEXH@Z 00430c59 f    CIL library: CIL module
 0001:0002fc80       __unwindfunclet$??0?$Array@E$09$0CA@@G3D@@QAE@XZ$0 00430c80 f    CIL library: CIL module
 0001:0002fc80       __unwindfunclet$??0?$Array@M$09$0CA@@G3D@@QAE@XZ$0 00430c80 f    CIL library: CIL module
 0001:0002fc80       __unwindfunclet$??0?$Array@H$09$0CA@@G3D@@QAE@XZ$0 00430c80 f    CIL library: CIL module
 0001:0002fc8b       __unwindfunclet$??0?$Array@H$09$0CA@@G3D@@QAE@XZ$1 00430c8b f    CIL library: CIL module
 0001:0002fc8b       __unwindfunclet$??0?$Array@E$09$0CA@@G3D@@QAE@XZ$1 00430c8b f    CIL library: CIL module
 0001:0002fc8b       __unwindfunclet$??0?$Array@M$09$0CA@@G3D@@QAE@XZ$1 00430c8b f    CIL library: CIL module
 0001:0002fc93       __ehhandler$??0?$Array@E$09$0CA@@G3D@@QAE@XZ 00430c93 f    CIL library: CIL module
 0001:0002fc93       __ehhandler$??0?$Array@M$09$0CA@@G3D@@QAE@XZ 00430c93 f    CIL library: CIL module
 0001:0002fc93       __ehhandler$??0?$Array@H$09$0CA@@G3D@@QAE@XZ 00430c93 f    CIL library: CIL module
 0001:0002fcb0       __unwindfunclet$?copyIndices@MapBuilder@MMAP@@AAEXAAV?$Array@H$09$0CA@@G3D@@V34@H@Z$0 00430cb0 f    CIL library: CIL module
 0001:0002fcba       __unwindfunclet$?copyIndices@MapBuilder@MMAP@@AAEXAAV?$Array@H$09$0CA@@G3D@@V34@H@Z$1 00430cba f    CIL library: CIL module
 0001:0002fcc2       __ehhandler$?copyIndices@MapBuilder@MMAP@@AAEXAAV?$Array@H$09$0CA@@G3D@@V34@H@Z 00430cc2 f    CIL library: CIL module
 0001:0002fce0       __unwindfunclet$?writeIV@IntermediateValues@MMAP@@QAEXIII@Z$0 00430ce0 f    CIL library: CIL module
 0001:0002fceb       __ehhandler$?writeIV@IntermediateValues@MMAP@@QAEXIII@Z 00430ceb f    CIL library: CIL module
 0001:0002fd20       __unwindfunclet$??$_Uninit_move@PAV?$basic_string@DU?$char_traits@D@std@@V?$allocator@D@2@@std@@PAV12@V?$allocator@V?$basic_string@DU?$char_traits@D@std@@V?$allocator@D@2@@std@@@2@V12@@std@@YAPAV?$basic_string@DU?$char_traits@D@std@@V?$allocator@D@2@@0@PAV10@00AAV?$allocator@V?$basic_string@DU?$char_traits@D@std@@V?$allocator@D@2@@std@@@0@0U_Nonscalar_ptr_iterator_tag@0@@Z$2 00430d20 f    CIL library: CIL module
 0001:0002fd31       __ehhandler$??$_Uninit_move@PAV?$basic_string@DU?$char_traits@D@std@@V?$allocator@D@2@@std@@PAV12@V?$allocator@V?$basic_string@DU?$char_traits@D@std@@V?$allocator@D@2@@std@@@2@V12@@std@@YAPAV?$basic_string@DU?$char_traits@D@std@@V?$allocator@D@2@@0@PAV10@00AAV?$allocator@V?$basic_string@DU?$char_traits@D@std@@V?$allocator@D@2@@std@@@0@0U_Nonscalar_ptr_iterator_tag@0@@Z 00430d31 f    CIL library: CIL module
 0001:0002fd50       __ehhandler$?reserve@?$vector@V?$basic_string@DU?$char_traits@D@std@@V?$allocator@D@2@@std@@V?$allocator@V?$basic_string@DU?$char_traits@D@std@@V?$allocator@D@2@@std@@@2@@std@@QAEXI@Z 00430d50 f    CIL library: CIL module
 0001:0002fd70       __unwindfunclet$?push_back@?$vector@V?$basic_string@DU?$char_traits@D@std@@V?$allocator@D@2@@std@@V?$allocator@V?$basic_string@DU?$char_traits@D@std@@V?$allocator@D@2@@std@@@2@@std@@QAEX$$QAV?$basic_string@DU?$char_traits@D@std@@V?$allocator@D@2@@2@@Z$0 00430d70 f    CIL library: CIL module
 0001:0002fd81       __unwindfunclet$?push_back@?$vector@V?$basic_string@DU?$char_traits@D@std@@V?$allocator@D@2@@std@@V?$allocator@V?$basic_string@DU?$char_traits@D@std@@V?$allocator@D@2@@std@@@2@@std@@QAEX$$QAV?$basic_string@DU?$char_traits@D@std@@V?$allocator@D@2@@2@@Z$1 00430d81 f    CIL library: CIL module
 0001:0002fd92       __ehhandler$?push_back@?$vector@V?$basic_string@DU?$char_traits@D@std@@V?$allocator@D@2@@std@@V?$allocator@V?$basic_string@DU?$char_traits@D@std@@V?$allocator@D@2@@std@@@2@@std@@QAEX$$QAV?$basic_string@DU?$char_traits@D@std@@V?$allocator@D@2@@2@@Z 00430d92 f    CIL library: CIL module
 0001:0002fdb0       __unwindfunclet$?getDirContents@MMAP@@YA?AW4ListFilesResult@1@AAV?$vector@V?$basic_string@DU?$char_traits@D@std@@V?$allocator@D@2@@std@@V?$allocator@V?$basic_string@DU?$char_traits@D@std@@V?$allocator@D@2@@std@@@2@@std@@V?$basic_string@DU?$char_traits@D@std@@V?$allocator@D@2@@4@1_N@Z$0 00430db0 f    CIL library: CIL module
 0001:0002fdb8       __unwindfunclet$?getDirContents@MMAP@@YA?AW4ListFilesResult@1@AAV?$vector@V?$basic_string@DU?$char_traits@D@std@@V?$allocator@D@2@@std@@V?$allocator@V?$basic_string@DU?$char_traits@D@std@@V?$allocator@D@2@@std@@@2@@std@@V?$basic_string@DU?$char_traits@D@std@@V?$allocator@D@2@@4@1_N@Z$1 00430db8 f    CIL library: CIL module
 0001:0002fdc0       __unwindfunclet$?getDirContents@MMAP@@YA?AW4ListFilesResult@1@AAV?$vector@V?$basic_string@DU?$char_traits@D@std@@V?$allocator@D@2@@std@@V?$allocator@V?$basic_string@DU?$char_traits@D@std@@V?$allocator@D@2@@std@@@2@@std@@V?$basic_string@DU?$char_traits@D@std@@V?$allocator@D@2@@4@1_N@Z$2 00430dc0 f    CIL library: CIL module
 0001:0002fdc8       __unwindfunclet$?getDirContents@MMAP@@YA?AW4ListFilesResult@1@AAV?$vector@V?$basic_string@DU?$char_traits@D@std@@V?$allocator@D@2@@std@@V?$allocator@V?$basic_string@DU?$char_traits@D@std@@V?$allocator@D@2@@std@@@2@@std@@V?$basic_string@DU?$char_traits@D@std@@V?$allocator@D@2@@4@1_N@Z$3 00430dc8 f    CIL library: CIL module
 0001:0002fdd0       __unwindfunclet$?getDirContents@MMAP@@YA?AW4ListFilesResult@1@AAV?$vector@V?$basic_string@DU?$char_traits@D@std@@V?$allocator@D@2@@std@@V?$allocator@V?$basic_string@DU?$char_traits@D@std@@V?$allocator@D@2@@std@@@2@@std@@V?$basic_string@DU?$char_traits@D@std@@V?$allocator@D@2@@4@1_N@Z$4 00430dd0 f    CIL library: CIL module
 0001:0002fdd8       __unwindfunclet$?getDirContents@MMAP@@YA?AW4ListFilesResult@1@AAV?$vector@V?$basic_string@DU?$char_traits@D@std@@V?$allocator@D@2@@std@@V?$allocator@V?$basic_string@DU?$char_traits@D@std@@V?$allocator@D@2@@std@@@2@@std@@V?$basic_string@DU?$char_traits@D@std@@V?$allocator@D@2@@4@1_N@Z$5 00430dd8 f    CIL library: CIL module
 0001:0002fde0       __ehhandler$?getDirContents@MMAP@@YA?AW4ListFilesResult@1@AAV?$vector@V?$basic_string@DU?$char_traits@D@std@@V?$allocator@D@2@@std@@V?$allocator@V?$basic_string@DU?$char_traits@D@std@@V?$allocator@D@2@@std@@@2@@std@@V?$basic_string@DU?$char_traits@D@std@@V?$allocator@D@2@@4@1_N@Z 00430de0 f    CIL library: CIL module
 0001:0002fe10       __unwindfunclet$?acquireModelInstance@VMapManager2@VMAP@@QAEPAVWorldModel@2@ABV?$basic_string@DU?$char_traits@D@std@@V?$allocator@D@2@@std@@0@Z$1 00430e10 f    CIL library: CIL module
 0001:0002fe18       __unwindfunclet$?acquireModelInstance@VMapManager2@VMAP@@QAEPAVWorldModel@2@ABV?$basic_string@DU?$char_traits@D@std@@V?$allocator@D@2@@std@@0@Z$2 00430e18 f    CIL library: CIL module
 0001:0002fe20       __unwindfunclet$?acquireModelInstance@VMapManager2@VMAP@@QAEPAVWorldModel@2@ABV?$basic_string@DU?$char_traits@D@std@@V?$allocator@D@2@@std@@0@Z$3 00430e20 f    CIL library: CIL module
 0001:0002fe28       __ehhandler$?acquireModelInstance@VMapManager2@VMAP@@QAEPAVWorldModel@2@ABV?$basic_string@DU?$char_traits@D@std@@V?$allocator@D@2@@std@@0@Z 00430e28 f    CIL library: CIL module
 0001:0002fe50       __unwindfunclet$?getMapFileName@VMapManager2@VMAP@@SA?AV?$basic_string@DU?$char_traits@D@std@@V?$allocator@D@2@@std@@I@Z$0 00430e50 f    CIL library: CIL module
 0001:0002fe5b       __unwindfunclet$?getMapFileName@VMapManager2@VMAP@@SA?AV?$basic_string@DU?$char_traits@D@std@@V?$allocator@D@2@@std@@I@Z$1 00430e5b f    CIL library: CIL module
 0001:0002fe63       __unwindfunclet$?getMapFileName@VMapManager2@VMAP@@SA?AV?$basic_string@DU?$char_traits@D@std@@V?$allocator@D@2@@std@@I@Z$2 00430e63 f    CIL library: CIL module
 0001:0002fe7c       __unwindfunclet$?getMapFileName@VMapManager2@VMAP@@SA?AV?$basic_string@DU?$char_traits@D@std@@V?$allocator@D@2@@std@@I@Z$3 00430e7c f    CIL library: CIL module
 0001:0002fe88       __ehhandler$?getMapFileName@VMapManager2@VMAP@@SA?AV?$basic_string@DU?$char_traits@D@std@@V?$allocator@D@2@@std@@I@Z 00430e88 f    CIL library: CIL module
 0001:0002feb0       __unwindfunclet$?UnloadMapTile@StaticMapTree@VMAP@@QAEXIIPAVVMapManager2@2@@Z$0 00430eb0 f    CIL library: CIL module
 0001:0002feb8       __unwindfunclet$?UnloadMapTile@StaticMapTree@VMAP@@QAEXIIPAVVMapManager2@2@@Z$1 00430eb8 f    CIL library: CIL module
 0001:0002fec0       __unwindfunclet$?UnloadMapTile@StaticMapTree@VMAP@@QAEXIIPAVVMapManager2@2@@Z$2 00430ec0 f    CIL library: CIL module
 0001:0002fecb       __ehhandler$?UnloadMapTile@StaticMapTree@VMAP@@QAEXIIPAVVMapManager2@2@@Z 00430ecb f    CIL library: CIL module
 0001:0002ff00       __unwindfunclet$?LoadMapTile@StaticMapTree@VMAP@@QAE_NIIPAVVMapManager2@2@@Z$0 00430f00 f    CIL library: CIL module
 0001:0002ff0b       __unwindfunclet$?LoadMapTile@StaticMapTree@VMAP@@QAE_NIIPAVVMapManager2@2@@Z$1 00430f0b f    CIL library: CIL module
 0001:0002ff16       __unwindfunclet$?LoadMapTile@StaticMapTree@VMAP@@QAE_NIIPAVVMapManager2@2@@Z$2 00430f16 f    CIL library: CIL module
 0001:0002ff1e       __unwindfunclet$?LoadMapTile@StaticMapTree@VMAP@@QAE_NIIPAVVMapManager2@2@@Z$3 00430f1e f    CIL library: CIL module
 0001:0002ff29       __ehhandler$?LoadMapTile@StaticMapTree@VMAP@@QAE_NIIPAVVMapManager2@2@@Z 00430f29 f    CIL library: CIL module
 0001:0002ff60       __unwindfunclet$?InitMap@StaticMapTree@VMAP@@QAE_NABV?$basic_string@DU?$char_traits@D@std@@V?$allocator@D@2@@std@@PAVVMapManager2@2@@Z$0 00430f60 f    CIL library: CIL module
 0001:0002ff68       __unwindfunclet$?InitMap@StaticMapTree@VMAP@@QAE_NABV?$basic_string@DU?$char_traits@D@std@@V?$allocator@D@2@@std@@PAVVMapManager2@2@@Z$1 00430f68 f    CIL library: CIL module
 0001:0002ff77       __unwindfunclet$?InitMap@StaticMapTree@VMAP@@QAE_NABV?$basic_string@DU?$char_traits@D@std@@V?$allocator@D@2@@std@@PAVVMapManager2@2@@Z$2 00430f77 f    CIL library: CIL module
 0001:0002ff82       __unwindfunclet$?InitMap@StaticMapTree@VMAP@@QAE_NABV?$basic_string@DU?$char_traits@D@std@@V?$allocator@D@2@@std@@PAVVMapManager2@2@@Z$3 00430f82 f    CIL library: CIL module
 0001:0002ff8d       __ehhandler$?InitMap@StaticMapTree@VMAP@@QAE_NABV?$basic_string@DU?$char_traits@D@std@@V?$allocator@D@2@@std@@PAVVMapManager2@2@@Z 00430f8d f    CIL library: CIL module
 0001:0002ffc0       __unwindfunclet$?CanLoadMap@StaticMapTree@VMAP@@SA_NABV?$basic_string@DU?$char_traits@D@std@@V?$allocator@D@2@@std@@III@Z$0 00430fc0 f    CIL library: CIL module
 0001:0002ffc8       __unwindfunclet$?CanLoadMap@StaticMapTree@VMAP@@SA_NABV?$basic_string@DU?$char_traits@D@std@@V?$allocator@D@2@@std@@III@Z$1 00430fc8 f    CIL library: CIL module
 0001:0002ffd0       __unwindfunclet$?CanLoadMap@StaticMapTree@VMAP@@SA_NABV?$basic_string@DU?$char_traits@D@std@@V?$allocator@D@2@@std@@III@Z$2 00430fd0 f    CIL library: CIL module
 0001:0002ffd8       __unwindfunclet$?CanLoadMap@StaticMapTree@VMAP@@SA_NABV?$basic_string@DU?$char_traits@D@std@@V?$allocator@D@2@@std@@III@Z$3 00430fd8 f    CIL library: CIL module
 0001:0002ffe3       __ehhandler$?CanLoadMap@StaticMapTree@VMAP@@SA_NABV?$basic_string@DU?$char_traits@D@std@@V?$allocator@D@2@@std@@III@Z 00430fe3 f    CIL library: CIL module
 0001:00030010       __unwindfunclet$?rcBuildPolyMeshDetail@@YA_NPAVrcContext@@ABUrcPolyMesh@@ABUrcCompactHeightfield@@MMAAUrcPolyMeshDetail@@@Z$0 00431010 f    CIL library: CIL module
 0001:0003001b       __unwindfunclet$?rcBuildPolyMeshDetail@@YA_NPAVrcContext@@ABUrcPolyMesh@@ABUrcCompactHeightfield@@MMAAUrcPolyMeshDetail@@@Z$1 0043101b f    CIL library: CIL module
 0001:00030026       __unwindfunclet$?rcBuildPolyMeshDetail@@YA_NPAVrcContext@@ABUrcPolyMesh@@ABUrcCompactHeightfield@@MMAAUrcPolyMeshDetail@@@Z$2 00431026 f    CIL library: CIL module
 0001:00030031       __unwindfunclet$?rcBuildPolyMeshDetail@@YA_NPAVrcContext@@ABUrcPolyMesh@@ABUrcCompactHeightfield@@MMAAUrcPolyMeshDetail@@@Z$3 00431031 f    CIL library: CIL module
 0001:0003003c       __unwindfunclet$?rcBuildPolyMeshDetail@@YA_NPAVrcContext@@ABUrcPolyMesh@@ABUrcCompactHeightfield@@MMAAUrcPolyMeshDetail@@@Z$4 0043103c f    CIL library: CIL module
 0001:00030047       __unwindfunclet$?rcBuildPolyMeshDetail@@YA_NPAVrcContext@@ABUrcPolyMesh@@ABUrcCompactHeightfield@@MMAAUrcPolyMeshDetail@@@Z$5 00431047 f    CIL library: CIL module
 0001:00030052       __unwindfunclet$?rcBuildPolyMeshDetail@@YA_NPAVrcContext@@ABUrcPolyMesh@@ABUrcCompactHeightfield@@MMAAUrcPolyMeshDetail@@@Z$6 00431052 f    CIL library: CIL module
 0001:0003005d       __ehhandler$?rcBuildPolyMeshDetail@@YA_NPAVrcContext@@ABUrcPolyMesh@@ABUrcCompactHeightfield@@MMAAUrcPolyMeshDetail@@@Z 0043105d f    CIL library: CIL module
 0001:00030090       __unwindfunclet$?_copy@?$Array@E$09$0CA@@G3D@@AAEXABV12@@Z$0 00431090 f    CIL library: CIL module
 0001:00030090       __unwindfunclet$?_copy@?$Array@H$09$0CA@@G3D@@AAEXABV12@@Z$0 00431090 f    CIL library: CIL module
 0001:00030090       __unwindfunclet$?_copy@?$Array@M$09$0CA@@G3D@@AAEXABV12@@Z$0 00431090 f    CIL library: CIL module
 0001:00030098       __ehhandler$?_copy@?$Array@E$09$0CA@@G3D@@AAEXABV12@@Z 00431098 f    CIL library: CIL module
 0001:00030098       __ehhandler$?_copy@?$Array@H$09$0CA@@G3D@@AAEXABV12@@Z 00431098 f    CIL library: CIL module
 0001:00030098       __ehhandler$?_copy@?$Array@M$09$0CA@@G3D@@AAEXABV12@@Z 00431098 f    CIL library: CIL module
 0001:000300c0       __unwindfunclet$?generateRealObj@MapBuilder@MMAP@@AAEXIIIUMeshData@2@@Z$0 004310c0 f    CIL library: CIL module
 0001:000300ca       __unwindfunclet$?generateRealObj@MapBuilder@MMAP@@AAEXIIIUMeshData@2@@Z$1 004310ca f    CIL library: CIL module
 0001:000300d7       __unwindfunclet$?generateRealObj@MapBuilder@MMAP@@AAEXIIIUMeshData@2@@Z$2 004310d7 f    CIL library: CIL module
 0001:000300e4       __unwindfunclet$?generateRealObj@MapBuilder@MMAP@@AAEXIIIUMeshData@2@@Z$4 004310e4 f    CIL library: CIL module
 0001:000300f2       __unwindfunclet$?generateRealObj@MapBuilder@MMAP@@AAEXIIIUMeshData@2@@Z$5 004310f2 f    CIL library: CIL module
 0001:000300fd       __unwindfunclet$?generateRealObj@MapBuilder@MMAP@@AAEXIIIUMeshData@2@@Z$6 004310fd f    CIL library: CIL module
 0001:00030108       __ehhandler$?generateRealObj@MapBuilder@MMAP@@AAEXIIIUMeshData@2@@Z 00431108 f    CIL library: CIL module
 0001:00030130       __unwindfunclet$?cleanVertices@MapBuilder@MMAP@@AAEXAAV?$Array@M$09$0CA@@G3D@@AAV?$Array@H$09$0CA@@4@@Z$0 00431130 f    CIL library: CIL module
 0001:0003013a       __unwindfunclet$?cleanVertices@MapBuilder@MMAP@@AAEXAAV?$Array@M$09$0CA@@G3D@@AAV?$Array@H$09$0CA@@4@@Z$1 0043113a f    CIL library: CIL module
 0001:00030144       __unwindfunclet$?cleanVertices@MapBuilder@MMAP@@AAEXAAV?$Array@M$09$0CA@@G3D@@AAV?$Array@H$09$0CA@@4@@Z$4 00431144 f    CIL library: CIL module
 0001:0003014c       __unwindfunclet$?cleanVertices@MapBuilder@MMAP@@AAEXAAV?$Array@M$09$0CA@@G3D@@AAV?$Array@H$09$0CA@@4@@Z$6 0043114c f    CIL library: CIL module
 0001:00030154       __ehhandler$?cleanVertices@MapBuilder@MMAP@@AAEXAAV?$Array@M$09$0CA@@G3D@@AAV?$Array@H$09$0CA@@4@@Z 00431154 f    CIL library: CIL module
 0001:00030170       __unwindfunclet$?copyVertices@MapBuilder@MMAP@@AAEXV?$vector@VVector3@G3D@@V?$allocator@VVector3@G3D@@@std@@@std@@AAV?$Array@M$09$0CA@@G3D@@@Z$0 00431170 f    CIL library: CIL module
 0001:00030170       __unwindfunclet$?copyIndices@MapBuilder@MMAP@@AAEXV?$vector@VMeshTriangle@VMAP@@V?$allocator@VMeshTriangle@VMAP@@@std@@@std@@AAV?$Array@H$09$0CA@@G3D@@H_N@Z$0 00431170 f    CIL library: CIL module
 0001:00030178       __ehhandler$?copyVertices@MapBuilder@MMAP@@AAEXV?$vector@VVector3@G3D@@V?$allocator@VVector3@G3D@@@std@@@std@@AAV?$Array@M$09$0CA@@G3D@@@Z 00431178 f    CIL library: CIL module
 0001:00030178       __ehhandler$?copyIndices@MapBuilder@MMAP@@AAEXV?$vector@VMeshTriangle@VMAP@@V?$allocator@VMeshTriangle@VMAP@@@std@@@std@@AAV?$Array@H$09$0CA@@G3D@@H_N@Z 00431178 f    CIL library: CIL module
 0001:000301a0       __unwindfunclet$?loadVMap@MapBuilder@MMAP@@AAE_NIIIAAUMeshData@2@@Z$0 004311a0 f    CIL library: CIL module
 0001:000301ab       __unwindfunclet$?loadVMap@MapBuilder@MMAP@@AAE_NIIIAAUMeshData@2@@Z$12 004311ab f    CIL library: CIL module
 0001:000301b6       __unwindfunclet$?loadVMap@MapBuilder@MMAP@@AAE_NIIIAAUMeshData@2@@Z$1 004311b6 f    CIL library: CIL module
 0001:000301c1       __unwindfunclet$?loadVMap@MapBuilder@MMAP@@AAE_NIIIAAUMeshData@2@@Z$2 004311c1 f    CIL library: CIL module
 0001:000301cc       __unwindfunclet$?loadVMap@MapBuilder@MMAP@@AAE_NIIIAAUMeshData@2@@Z$3 004311cc f    CIL library: CIL module
 0001:000301d7       __unwindfunclet$?loadVMap@MapBuilder@MMAP@@AAE_NIIIAAUMeshData@2@@Z$4 004311d7 f    CIL library: CIL module
 0001:000301e2       __unwindfunclet$?loadVMap@MapBuilder@MMAP@@AAE_NIIIAAUMeshData@2@@Z$5 004311e2 f    CIL library: CIL module
 0001:000301ed       __unwindfunclet$?loadVMap@MapBuilder@MMAP@@AAE_NIIIAAUMeshData@2@@Z$9 004311ed f    CIL library: CIL module
 0001:000301f8       __unwindfunclet$?loadVMap@MapBuilder@MMAP@@AAE_NIIIAAUMeshData@2@@Z$10 004311f8 f    CIL library: CIL module
 0001:00030203       __ehhandler$?loadVMap@MapBuilder@MMAP@@AAE_NIIIAAUMeshData@2@@Z 00431203 f    CIL library: CIL module
 0001:00030230       __unwindfunclet$??0MeshData@MMAP@@QAE@ABU01@@Z$5 00431230 f    CIL library: CIL module
 0001:0003023b       __unwindfunclet$??0MeshData@MMAP@@QAE@ABU01@@Z$0 0043123b f    CIL library: CIL module
 0001:00030245       __unwindfunclet$??0MeshData@MMAP@@QAE@ABU01@@Z$6 00431245 f    CIL library: CIL module
 0001:00030250       __unwindfunclet$??0MeshData@MMAP@@QAE@ABU01@@Z$1 00431250 f    CIL library: CIL module
 0001:0003025d       __unwindfunclet$??0MeshData@MMAP@@QAE@ABU01@@Z$7 0043125d f    CIL library: CIL module
 0001:00030268       __unwindfunclet$??0MeshData@MMAP@@QAE@ABU01@@Z$2 00431268 f    CIL library: CIL module
 0001:00030275       __unwindfunclet$??0MeshData@MMAP@@QAE@ABU01@@Z$8 00431275 f    CIL library: CIL module
 0001:00030280       __unwindfunclet$??0MeshData@MMAP@@QAE@ABU01@@Z$3 00431280 f    CIL library: CIL module
 0001:0003028d       __unwindfunclet$??0MeshData@MMAP@@QAE@ABU01@@Z$9 0043128d f    CIL library: CIL module
 0001:00030298       __ehhandler$??0MeshData@MMAP@@QAE@ABU01@@Z 00431298 f    CIL library: CIL module
 0001:000302c0       __unwindfunclet$?discoverTiles@MapBuilder@MMAP@@AAEXXZ$0 004312c0 f    CIL library: CIL module
 0001:000302c8       __unwindfunclet$?discoverTiles@MapBuilder@MMAP@@AAEXXZ$1 004312c8 f    CIL library: CIL module
 0001:000302d0       __unwindfunclet$?discoverTiles@MapBuilder@MMAP@@AAEXXZ$4 004312d0 f    CIL library: CIL module
 0001:000302dc       __unwindfunclet$?discoverTiles@MapBuilder@MMAP@@AAEXXZ$5 004312dc f    CIL library: CIL module
 0001:000302e4       __unwindfunclet$?discoverTiles@MapBuilder@MMAP@@AAEXXZ$8 004312e4 f    CIL library: CIL module
 0001:000302f0       __unwindfunclet$?discoverTiles@MapBuilder@MMAP@@AAEXXZ$9 004312f0 f    CIL library: CIL module
 0001:000302f8       __unwindfunclet$?discoverTiles@MapBuilder@MMAP@@AAEXXZ$13 004312f8 f    CIL library: CIL module
 0001:00030300       __ehhandler$?discoverTiles@MapBuilder@MMAP@@AAEXXZ 00431300 f    CIL library: CIL module
 0001:00030330       __unwindfunclet$??0MapBuilder@MMAP@@QAE@M_N00000@Z$0 00431330 f    CIL library: CIL module
 0001:0003033d       __unwindfunclet$??0MapBuilder@MMAP@@QAE@M_N00000@Z$1 0043133d f    CIL library: CIL module
 0001:00030349       __unwindfunclet$??0MapBuilder@MMAP@@QAE@M_N00000@Z$6 00431349 f    CIL library: CIL module
 0001:00030351       __unwindfunclet$??0MapBuilder@MMAP@@QAE@M_N00000@Z$7 00431351 f    CIL library: CIL module
 0001:0003035c       __ehhandler$??0MapBuilder@MMAP@@QAE@M_N00000@Z 0043135c f    CIL library: CIL module
 0001:00030380       __unwindfunclet$?checkDirectories@@YA_N_N@Z$0 00431380 f    CIL library: CIL module
 0001:00030388       __unwindfunclet$?checkDirectories@@YA_N_N@Z$1 00431388 f    CIL library: CIL module
 0001:00030390       __unwindfunclet$?checkDirectories@@YA_N_N@Z$3 00431390 f    CIL library: CIL module
 0001:00030398       __unwindfunclet$?checkDirectories@@YA_N_N@Z$5 00431398 f    CIL library: CIL module
 0001:000303a0       __unwindfunclet$?checkDirectories@@YA_N_N@Z$7 004313a0 f    CIL library: CIL module
 0001:000303a8       __ehhandler$?checkDirectories@@YA_N_N@Z 004313a8 f    CIL library: CIL module
 0001:000303d0       __unwindfunclet$?_loadMap@VMapManager2@VMAP@@IAE_NIABV?$basic_string@DU?$char_traits@D@std@@V?$allocator@D@2@@std@@II@Z$0 004313d0 f    CIL library: CIL module
 0001:000303d8       __unwindfunclet$?_loadMap@VMapManager2@VMAP@@IAE_NIABV?$basic_string@DU?$char_traits@D@std@@V?$allocator@D@2@@std@@II@Z$1 004313d8 f    CIL library: CIL module
 0001:000303e4       __ehhandler$?_loadMap@VMapManager2@VMAP@@IAE_NIABV?$basic_string@DU?$char_traits@D@std@@V?$allocator@D@2@@std@@II@Z 004313e4 f    CIL library: CIL module
 0001:00030410       __unwindfunclet$?loadMap@VMapManager2@VMAP@@UAE?AW4VMAPLoadResult@2@PBDIHH@Z$0 00431410 f    CIL library: CIL module
 0001:00030418       __ehhandler$?loadMap@VMapManager2@VMAP@@UAE?AW4VMAPLoadResult@2@PBDIHH@Z 00431418 f    CIL library: CIL module
 0001:00030440       __unwindfunclet$?removeVertex@@YA_NPAVrcContext@@AAUrcPolyMesh@@GH@Z$0 00431440 f    CIL library: CIL module
 0001:00030448       __unwindfunclet$?removeVertex@@YA_NPAVrcContext@@AAUrcPolyMesh@@GH@Z$1 00431448 f    CIL library: CIL module
 0001:00030450       __unwindfunclet$?removeVertex@@YA_NPAVrcContext@@AAUrcPolyMesh@@GH@Z$2 00431450 f    CIL library: CIL module
 0001:00030458       __unwindfunclet$?removeVertex@@YA_NPAVrcContext@@AAUrcPolyMesh@@GH@Z$3 00431458 f    CIL library: CIL module
 0001:00030460       __unwindfunclet$?removeVertex@@YA_NPAVrcContext@@AAUrcPolyMesh@@GH@Z$4 00431460 f    CIL library: CIL module
 0001:00030468       __unwindfunclet$?removeVertex@@YA_NPAVrcContext@@AAUrcPolyMesh@@GH@Z$5 00431468 f    CIL library: CIL module
 0001:00030470       __unwindfunclet$?removeVertex@@YA_NPAVrcContext@@AAUrcPolyMesh@@GH@Z$6 00431470 f    CIL library: CIL module
 0001:00030478       __unwindfunclet$?removeVertex@@YA_NPAVrcContext@@AAUrcPolyMesh@@GH@Z$7 00431478 f    CIL library: CIL module
 0001:00030480       __unwindfunclet$?removeVertex@@YA_NPAVrcContext@@AAUrcPolyMesh@@GH@Z$8 00431480 f    CIL library: CIL module
 0001:00030488       __unwindfunclet$?removeVertex@@YA_NPAVrcContext@@AAUrcPolyMesh@@GH@Z$9 00431488 f    CIL library: CIL module
 0001:00030490       __ehhandler$?removeVertex@@YA_NPAVrcContext@@AAUrcPolyMesh@@GH@Z 00431490 f    CIL library: CIL module
 0001:000304b0       __unwindfunclet$?loadMap@TerrainBuilder@MMAP@@AAE_NIIIAAUMeshData@2@W4Spot@2@@Z$0 004314b0 f    CIL library: CIL module
 0001:000304bd       __unwindfunclet$?loadMap@TerrainBuilder@MMAP@@AAE_NIIIAAUMeshData@2@W4Spot@2@@Z$1 004314bd f    CIL library: CIL module
 0001:000304ca       __unwindfunclet$?loadMap@TerrainBuilder@MMAP@@AAE_NIIIAAUMeshData@2@W4Spot@2@@Z$2 004314ca f    CIL library: CIL module
 0001:000304d5       __unwindfunclet$?loadMap@TerrainBuilder@MMAP@@AAE_NIIIAAUMeshData@2@W4Spot@2@@Z$3 004314d5 f    CIL library: CIL module
 0001:000304e0       __ehhandler$?loadMap@TerrainBuilder@MMAP@@AAE_NIIIAAUMeshData@2@W4Spot@2@@Z 004314e0 f    CIL library: CIL module
 0001:00030510       __unwindfunclet$?generateObjFile@MapBuilder@MMAP@@AAEXIIIUMeshData@2@@Z$0 00431510 f    CIL library: CIL module
 0001:0003051a       __unwindfunclet$?generateObjFile@MapBuilder@MMAP@@AAEXIIIUMeshData@2@@Z$2 0043151a f    CIL library: CIL module
 0001:00030527       __unwindfunclet$?generateObjFile@MapBuilder@MMAP@@AAEXIIIUMeshData@2@@Z$3 00431527 f    CIL library: CIL module
 0001:00030534       __unwindfunclet$?generateObjFile@MapBuilder@MMAP@@AAEXIIIUMeshData@2@@Z$5 00431534 f    CIL library: CIL module
 0001:00030542       __ehhandler$?generateObjFile@MapBuilder@MMAP@@AAEXIIIUMeshData@2@@Z 00431542 f    CIL library: CIL module
 0001:00030570       __unwindfunclet$?rcBuildPolyMesh@@YA_NPAVrcContext@@AAUrcContourSet@@HAAUrcPolyMesh@@@Z$0 00431570 f    CIL library: CIL module
 0001:00030578       __unwindfunclet$?rcBuildPolyMesh@@YA_NPAVrcContext@@AAUrcContourSet@@HAAUrcPolyMesh@@@Z$1 00431578 f    CIL library: CIL module
 0001:00030580       __unwindfunclet$?rcBuildPolyMesh@@YA_NPAVrcContext@@AAUrcContourSet@@HAAUrcPolyMesh@@@Z$2 00431580 f    CIL library: CIL module
 0001:00030588       __unwindfunclet$?rcBuildPolyMesh@@YA_NPAVrcContext@@AAUrcContourSet@@HAAUrcPolyMesh@@@Z$3 00431588 f    CIL library: CIL module
 0001:00030590       __unwindfunclet$?rcBuildPolyMesh@@YA_NPAVrcContext@@AAUrcContourSet@@HAAUrcPolyMesh@@@Z$4 00431590 f    CIL library: CIL module
 0001:00030598       __unwindfunclet$?rcBuildPolyMesh@@YA_NPAVrcContext@@AAUrcContourSet@@HAAUrcPolyMesh@@@Z$5 00431598 f    CIL library: CIL module
 0001:000305a0       __ehhandler$?rcBuildPolyMesh@@YA_NPAVrcContext@@AAUrcContourSet@@HAAUrcPolyMesh@@@Z 004315a0 f    CIL library: CIL module
 0001:000305c0       __unwindfunclet$?buildMoveMapTile@MapBuilder@MMAP@@AAEXIIIUMeshData@2@QAM1PAVdtNavMesh@@@Z$0 004315c0 f    CIL library: CIL module
 0001:000305ca       __unwindfunclet$?buildMoveMapTile@MapBuilder@MMAP@@AAEXIIIUMeshData@2@QAM1PAVdtNavMesh@@@Z$1 004315ca f    CIL library: CIL module
 0001:000305d5       __unwindfunclet$?buildMoveMapTile@MapBuilder@MMAP@@AAEXIIIUMeshData@2@QAM1PAVdtNavMesh@@@Z$2 004315d5 f    CIL library: CIL module
 0001:000305e4       __ehhandler$?buildMoveMapTile@MapBuilder@MMAP@@AAEXIIIUMeshData@2@QAM1PAVdtNavMesh@@@Z 004315e4 f    CIL library: CIL module
 0001:00030610       __unwindfunclet$?buildTile@MapBuilder@MMAP@@QAEXIII@Z$6 00431610 f    CIL library: CIL module
 0001:0003061d       __unwindfunclet$?buildTile@MapBuilder@MMAP@@QAEXIII@Z$7 0043161d f    CIL library: CIL module
 0001:0003062a       __unwindfunclet$?buildTile@MapBuilder@MMAP@@QAEXIII@Z$8 0043162a f    CIL library: CIL module
 0001:00030637       __unwindfunclet$?buildTile@MapBuilder@MMAP@@QAEXIII@Z$9 00431637 f    CIL library: CIL module
 0001:00030644       __unwindfunclet$?buildTile@MapBuilder@MMAP@@QAEXIII@Z$0 00431644 f    CIL library: CIL module
 0001:00030651       __unwindfunclet$?buildTile@MapBuilder@MMAP@@QAEXIII@Z$1 00431651 f    CIL library: CIL module
 0001:0003065b       __unwindfunclet$?buildTile@MapBuilder@MMAP@@QAEXIII@Z$2 0043165b f    CIL library: CIL module
 0001:00030665       __unwindfunclet$?buildTile@MapBuilder@MMAP@@QAEXIII@Z$11 00431665 f    CIL library: CIL module
 0001:00030672       __unwindfunclet$?buildTile@MapBuilder@MMAP@@QAEXIII@Z$12 00431672 f    CIL library: CIL module
 0001:0003067f       __unwindfunclet$?buildTile@MapBuilder@MMAP@@QAEXIII@Z$13 0043167f f    CIL library: CIL module
 0001:0003068c       __unwindfunclet$?buildTile@MapBuilder@MMAP@@QAEXIII@Z$14 0043168c f    CIL library: CIL module
 0001:00030699       __unwindfunclet$?buildTile@MapBuilder@MMAP@@QAEXIII@Z$3 00431699 f    CIL library: CIL module
 0001:000306a6       __unwindfunclet$?buildTile@MapBuilder@MMAP@@QAEXIII@Z$16 004316a6 f    CIL library: CIL module
 0001:000306b1       __ehhandler$?buildTile@MapBuilder@MMAP@@QAEXIII@Z 004316b1 f    CIL library: CIL module
 0001:000306e0       __unwindfunclet$?build@MapBuilder@MMAP@@QAEXI@Z$6 004316e0 f    CIL library: CIL module
 0001:000306ed       __unwindfunclet$?build@MapBuilder@MMAP@@QAEXI@Z$7 004316ed f    CIL library: CIL module
 0001:000306fa       __unwindfunclet$?build@MapBuilder@MMAP@@QAEXI@Z$8 004316fa f    CIL library: CIL module
 0001:00030707       __unwindfunclet$?build@MapBuilder@MMAP@@QAEXI@Z$9 00431707 f    CIL library: CIL module
 0001:00030714       __unwindfunclet$?build@MapBuilder@MMAP@@QAEXI@Z$0 00431714 f    CIL library: CIL module
 0001:00030721       __unwindfunclet$?build@MapBuilder@MMAP@@QAEXI@Z$1 00431721 f    CIL library: CIL module
 0001:0003072b       __unwindfunclet$?build@MapBuilder@MMAP@@QAEXI@Z$2 0043172b f    CIL library: CIL module
 0001:00030735       __unwindfunclet$?build@MapBuilder@MMAP@@QAEXI@Z$11 00431735 f    CIL library: CIL module
 0001:00030742       __unwindfunclet$?build@MapBuilder@MMAP@@QAEXI@Z$12 00431742 f    CIL library: CIL module
 0001:0003074f       __unwindfunclet$?build@MapBuilder@MMAP@@QAEXI@Z$13 0043174f f    CIL library: CIL module
 0001:0003075c       __unwindfunclet$?build@MapBuilder@MMAP@@QAEXI@Z$14 0043175c f    CIL library: CIL module
 0001:00030769       __unwindfunclet$?build@MapBuilder@MMAP@@QAEXI@Z$3 00431769 f    CIL library: CIL module
 0001:00030776       __unwindfunclet$?build@MapBuilder@MMAP@@QAEXI@Z$16 00431776 f    CIL library: CIL module
 0001:00030781       __unwindfunclet$?build@MapBuilder@MMAP@@QAEXI@Z$17 00431781 f    CIL library: CIL module
 0001:00030789       __unwindfunclet$?build@MapBuilder@MMAP@@QAEXI@Z$18 00431789 f    CIL library: CIL module
 0001:00030791       __ehhandler$?build@MapBuilder@MMAP@@QAEXI@Z 00431791 f    CIL library: CIL module
 0001:000307c0       __unwindfunclet$_main$0    004317c0 f    CIL library: CIL module
 0001:000307ca       __ehhandler$_main          004317ca f    CIL library: CIL module
 0001:000307f0       ??__E?ignoreArray@CollisionDetection@G3D@@0V?$Array@VVector3@G3D@@$09$0CA@@2@A@@YAXXZ 004317f0 f   g3dlite:CollisionDetection.obj
 0001:00030810       ??__EcurrentFilesUsed@_internal@G3D@@YAXXZ 00431810 f   g3dlite:fileutils.obj
 0001:00030830       ??__Fm@?1??create@MemoryManager@G3D@@SA?AV?$ReferenceCountedPointer@VMemoryManager@G3D@@@2@XZ@YAXXZ 00431830 f   g3dlite:MemoryManager.obj
 0001:00030870       ??__Fthesystem@?1??instance@System@G3D@@CAAAV12@XZ@YAXXZ 00431870 f   g3dlite:System.obj
 0001:00030880       ??__F?ignoreArray@CollisionDetection@G3D@@0V?$Array@VVector3@G3D@@$09$0CA@@2@A@@YAXXZ 00431880 f   g3dlite:CollisionDetection.obj
 0001:00030920       ??__FcurrentFilesUsed@_internal@G3D@@YAXXZ 00431920 f   g3dlite:fileutils.obj
